
Pos_Con_Interrupts.elf:     file format elf32-avr

Sections:
Idx Name          Size      VMA       LMA       File off  Algn
  0 .data         00000108  00800200  0000295c  000029d0  2**0
                  CONTENTS, ALLOC, LOAD, DATA
  1 .text         0000295c  00000000  00000000  00000074  2**1
                  CONTENTS, ALLOC, LOAD, READONLY, CODE
  2 .bss          00000018  00800308  00002a64  00002ad8  2**0
                  ALLOC
  3 .stab         0000042c  00000000  00000000  00002ad8  2**2
                  CONTENTS, READONLY, DEBUGGING
  4 .stabstr      0000005f  00000000  00000000  00002f04  2**0
                  CONTENTS, READONLY, DEBUGGING
  5 .debug_aranges 00000020  00000000  00000000  00002f63  2**0
                  CONTENTS, READONLY, DEBUGGING
  6 .debug_pubnames 0000046d  00000000  00000000  00002f83  2**0
                  CONTENTS, READONLY, DEBUGGING
  7 .debug_info   00000eab  00000000  00000000  000033f0  2**0
                  CONTENTS, READONLY, DEBUGGING
  8 .debug_abbrev 000001f7  00000000  00000000  0000429b  2**0
                  CONTENTS, READONLY, DEBUGGING
  9 .debug_line   00000ec7  00000000  00000000  00004492  2**0
                  CONTENTS, READONLY, DEBUGGING
 10 .debug_frame  00000360  00000000  00000000  0000535c  2**2
                  CONTENTS, READONLY, DEBUGGING
 11 .debug_str    0000005d  00000000  00000000  000056bc  2**0
                  CONTENTS, READONLY, DEBUGGING
Disassembly of section .text:

00000000 <__vectors>:
       0:	0c 94 72 00 	jmp	0xe4	; 0xe4 <__ctors_end>
       4:	0c 94 93 00 	jmp	0x126	; 0x126 <__bad_interrupt>
       8:	0c 94 93 00 	jmp	0x126	; 0x126 <__bad_interrupt>
       c:	0c 94 93 00 	jmp	0x126	; 0x126 <__bad_interrupt>
      10:	0c 94 93 00 	jmp	0x126	; 0x126 <__bad_interrupt>
      14:	0c 94 df 02 	jmp	0x5be	; 0x5be <__vector_5>
      18:	0c 94 b4 02 	jmp	0x568	; 0x568 <__vector_6>
      1c:	0c 94 93 00 	jmp	0x126	; 0x126 <__bad_interrupt>
      20:	0c 94 93 00 	jmp	0x126	; 0x126 <__bad_interrupt>
      24:	0c 94 93 00 	jmp	0x126	; 0x126 <__bad_interrupt>
      28:	0c 94 93 00 	jmp	0x126	; 0x126 <__bad_interrupt>
      2c:	0c 94 93 00 	jmp	0x126	; 0x126 <__bad_interrupt>
      30:	0c 94 93 00 	jmp	0x126	; 0x126 <__bad_interrupt>
      34:	0c 94 93 00 	jmp	0x126	; 0x126 <__bad_interrupt>
      38:	0c 94 93 00 	jmp	0x126	; 0x126 <__bad_interrupt>
      3c:	0c 94 93 00 	jmp	0x126	; 0x126 <__bad_interrupt>
      40:	0c 94 93 00 	jmp	0x126	; 0x126 <__bad_interrupt>
      44:	0c 94 93 00 	jmp	0x126	; 0x126 <__bad_interrupt>
      48:	0c 94 93 00 	jmp	0x126	; 0x126 <__bad_interrupt>
      4c:	0c 94 93 00 	jmp	0x126	; 0x126 <__bad_interrupt>
      50:	0c 94 93 00 	jmp	0x126	; 0x126 <__bad_interrupt>
      54:	0c 94 93 00 	jmp	0x126	; 0x126 <__bad_interrupt>
      58:	0c 94 93 00 	jmp	0x126	; 0x126 <__bad_interrupt>
      5c:	0c 94 93 00 	jmp	0x126	; 0x126 <__bad_interrupt>
      60:	0c 94 93 00 	jmp	0x126	; 0x126 <__bad_interrupt>
      64:	0c 94 d6 09 	jmp	0x13ac	; 0x13ac <__vector_25>
      68:	0c 94 93 00 	jmp	0x126	; 0x126 <__bad_interrupt>
      6c:	0c 94 93 00 	jmp	0x126	; 0x126 <__bad_interrupt>
      70:	0c 94 93 00 	jmp	0x126	; 0x126 <__bad_interrupt>
      74:	0c 94 93 00 	jmp	0x126	; 0x126 <__bad_interrupt>
      78:	0c 94 93 00 	jmp	0x126	; 0x126 <__bad_interrupt>
      7c:	0c 94 93 00 	jmp	0x126	; 0x126 <__bad_interrupt>
      80:	0c 94 93 00 	jmp	0x126	; 0x126 <__bad_interrupt>
      84:	0c 94 93 00 	jmp	0x126	; 0x126 <__bad_interrupt>
      88:	0c 94 93 00 	jmp	0x126	; 0x126 <__bad_interrupt>
      8c:	0c 94 93 00 	jmp	0x126	; 0x126 <__bad_interrupt>
      90:	0c 94 93 00 	jmp	0x126	; 0x126 <__bad_interrupt>
      94:	0c 94 93 00 	jmp	0x126	; 0x126 <__bad_interrupt>
      98:	0c 94 93 00 	jmp	0x126	; 0x126 <__bad_interrupt>
      9c:	0c 94 93 00 	jmp	0x126	; 0x126 <__bad_interrupt>
      a0:	0c 94 93 00 	jmp	0x126	; 0x126 <__bad_interrupt>
      a4:	0c 94 93 00 	jmp	0x126	; 0x126 <__bad_interrupt>
      a8:	0c 94 93 00 	jmp	0x126	; 0x126 <__bad_interrupt>
      ac:	0c 94 93 00 	jmp	0x126	; 0x126 <__bad_interrupt>
      b0:	0c 94 93 00 	jmp	0x126	; 0x126 <__bad_interrupt>
      b4:	0c 94 93 00 	jmp	0x126	; 0x126 <__bad_interrupt>
      b8:	0c 94 93 00 	jmp	0x126	; 0x126 <__bad_interrupt>
      bc:	0c 94 93 00 	jmp	0x126	; 0x126 <__bad_interrupt>
      c0:	0c 94 93 00 	jmp	0x126	; 0x126 <__bad_interrupt>
      c4:	0c 94 93 00 	jmp	0x126	; 0x126 <__bad_interrupt>
      c8:	0c 94 93 00 	jmp	0x126	; 0x126 <__bad_interrupt>
      cc:	0c 94 93 00 	jmp	0x126	; 0x126 <__bad_interrupt>
      d0:	0c 94 93 00 	jmp	0x126	; 0x126 <__bad_interrupt>
      d4:	0c 94 93 00 	jmp	0x126	; 0x126 <__bad_interrupt>
      d8:	0c 94 93 00 	jmp	0x126	; 0x126 <__bad_interrupt>
      dc:	0c 94 93 00 	jmp	0x126	; 0x126 <__bad_interrupt>
      e0:	0c 94 93 00 	jmp	0x126	; 0x126 <__bad_interrupt>

000000e4 <__ctors_end>:
      e4:	11 24       	eor	r1, r1
      e6:	1f be       	out	0x3f, r1	; 63
      e8:	cf ef       	ldi	r28, 0xFF	; 255
      ea:	d1 e2       	ldi	r29, 0x21	; 33
      ec:	de bf       	out	0x3e, r29	; 62
      ee:	cd bf       	out	0x3d, r28	; 61
      f0:	00 e0       	ldi	r16, 0x00	; 0
      f2:	0c bf       	out	0x3c, r16	; 60

000000f4 <__do_copy_data>:
      f4:	13 e0       	ldi	r17, 0x03	; 3
      f6:	a0 e0       	ldi	r26, 0x00	; 0
      f8:	b2 e0       	ldi	r27, 0x02	; 2
      fa:	ec e5       	ldi	r30, 0x5C	; 92
      fc:	f9 e2       	ldi	r31, 0x29	; 41
      fe:	00 e0       	ldi	r16, 0x00	; 0
     100:	0b bf       	out	0x3b, r16	; 59
     102:	02 c0       	rjmp	.+4      	; 0x108 <__do_copy_data+0x14>
     104:	07 90       	elpm	r0, Z+
     106:	0d 92       	st	X+, r0
     108:	a8 30       	cpi	r26, 0x08	; 8
     10a:	b1 07       	cpc	r27, r17
     10c:	d9 f7       	brne	.-10     	; 0x104 <__do_copy_data+0x10>

0000010e <__do_clear_bss>:
     10e:	13 e0       	ldi	r17, 0x03	; 3
     110:	a8 e0       	ldi	r26, 0x08	; 8
     112:	b3 e0       	ldi	r27, 0x03	; 3
     114:	01 c0       	rjmp	.+2      	; 0x118 <.do_clear_bss_start>

00000116 <.do_clear_bss_loop>:
     116:	1d 92       	st	X+, r1

00000118 <.do_clear_bss_start>:
     118:	a0 32       	cpi	r26, 0x20	; 32
     11a:	b1 07       	cpc	r27, r17
     11c:	e1 f7       	brne	.-8      	; 0x116 <.do_clear_bss_loop>
     11e:	0e 94 90 0d 	call	0x1b20	; 0x1b20 <main>
     122:	0c 94 ad 14 	jmp	0x295a	; 0x295a <_exit>

00000126 <__bad_interrupt>:
     126:	0c 94 00 00 	jmp	0	; 0x0 <__vectors>

0000012a <servo1_pin_config>:
     12a:	cf 93       	push	r28
     12c:	df 93       	push	r29
     12e:	cd b7       	in	r28, 0x3d	; 61
     130:	de b7       	in	r29, 0x3e	; 62
     132:	a4 e2       	ldi	r26, 0x24	; 36
     134:	b0 e0       	ldi	r27, 0x00	; 0
     136:	e4 e2       	ldi	r30, 0x24	; 36
     138:	f0 e0       	ldi	r31, 0x00	; 0
     13a:	80 81       	ld	r24, Z
     13c:	80 62       	ori	r24, 0x20	; 32
     13e:	8c 93       	st	X, r24
     140:	a5 e2       	ldi	r26, 0x25	; 37
     142:	b0 e0       	ldi	r27, 0x00	; 0
     144:	e5 e2       	ldi	r30, 0x25	; 37
     146:	f0 e0       	ldi	r31, 0x00	; 0
     148:	80 81       	ld	r24, Z
     14a:	80 62       	ori	r24, 0x20	; 32
     14c:	8c 93       	st	X, r24
     14e:	df 91       	pop	r29
     150:	cf 91       	pop	r28
     152:	08 95       	ret

00000154 <servo2_pin_config>:
     154:	cf 93       	push	r28
     156:	df 93       	push	r29
     158:	cd b7       	in	r28, 0x3d	; 61
     15a:	de b7       	in	r29, 0x3e	; 62
     15c:	a4 e2       	ldi	r26, 0x24	; 36
     15e:	b0 e0       	ldi	r27, 0x00	; 0
     160:	e4 e2       	ldi	r30, 0x24	; 36
     162:	f0 e0       	ldi	r31, 0x00	; 0
     164:	80 81       	ld	r24, Z
     166:	80 64       	ori	r24, 0x40	; 64
     168:	8c 93       	st	X, r24
     16a:	a5 e2       	ldi	r26, 0x25	; 37
     16c:	b0 e0       	ldi	r27, 0x00	; 0
     16e:	e5 e2       	ldi	r30, 0x25	; 37
     170:	f0 e0       	ldi	r31, 0x00	; 0
     172:	80 81       	ld	r24, Z
     174:	80 64       	ori	r24, 0x40	; 64
     176:	8c 93       	st	X, r24
     178:	df 91       	pop	r29
     17a:	cf 91       	pop	r28
     17c:	08 95       	ret

0000017e <servo3_pin_config>:
     17e:	cf 93       	push	r28
     180:	df 93       	push	r29
     182:	cd b7       	in	r28, 0x3d	; 61
     184:	de b7       	in	r29, 0x3e	; 62
     186:	a4 e2       	ldi	r26, 0x24	; 36
     188:	b0 e0       	ldi	r27, 0x00	; 0
     18a:	e4 e2       	ldi	r30, 0x24	; 36
     18c:	f0 e0       	ldi	r31, 0x00	; 0
     18e:	80 81       	ld	r24, Z
     190:	80 68       	ori	r24, 0x80	; 128
     192:	8c 93       	st	X, r24
     194:	a5 e2       	ldi	r26, 0x25	; 37
     196:	b0 e0       	ldi	r27, 0x00	; 0
     198:	e5 e2       	ldi	r30, 0x25	; 37
     19a:	f0 e0       	ldi	r31, 0x00	; 0
     19c:	80 81       	ld	r24, Z
     19e:	80 68       	ori	r24, 0x80	; 128
     1a0:	8c 93       	st	X, r24
     1a2:	df 91       	pop	r29
     1a4:	cf 91       	pop	r28
     1a6:	08 95       	ret

000001a8 <motion_pin_config>:
     1a8:	cf 93       	push	r28
     1aa:	df 93       	push	r29
     1ac:	cd b7       	in	r28, 0x3d	; 61
     1ae:	de b7       	in	r29, 0x3e	; 62
     1b0:	a1 e2       	ldi	r26, 0x21	; 33
     1b2:	b0 e0       	ldi	r27, 0x00	; 0
     1b4:	e1 e2       	ldi	r30, 0x21	; 33
     1b6:	f0 e0       	ldi	r31, 0x00	; 0
     1b8:	80 81       	ld	r24, Z
     1ba:	8f 60       	ori	r24, 0x0F	; 15
     1bc:	8c 93       	st	X, r24
     1be:	a2 e2       	ldi	r26, 0x22	; 34
     1c0:	b0 e0       	ldi	r27, 0x00	; 0
     1c2:	e2 e2       	ldi	r30, 0x22	; 34
     1c4:	f0 e0       	ldi	r31, 0x00	; 0
     1c6:	90 81       	ld	r25, Z
     1c8:	80 ef       	ldi	r24, 0xF0	; 240
     1ca:	89 23       	and	r24, r25
     1cc:	8c 93       	st	X, r24
     1ce:	aa e0       	ldi	r26, 0x0A	; 10
     1d0:	b1 e0       	ldi	r27, 0x01	; 1
     1d2:	ea e0       	ldi	r30, 0x0A	; 10
     1d4:	f1 e0       	ldi	r31, 0x01	; 1
     1d6:	80 81       	ld	r24, Z
     1d8:	88 61       	ori	r24, 0x18	; 24
     1da:	8c 93       	st	X, r24
     1dc:	ab e0       	ldi	r26, 0x0B	; 11
     1de:	b1 e0       	ldi	r27, 0x01	; 1
     1e0:	eb e0       	ldi	r30, 0x0B	; 11
     1e2:	f1 e0       	ldi	r31, 0x01	; 1
     1e4:	80 81       	ld	r24, Z
     1e6:	88 61       	ori	r24, 0x18	; 24
     1e8:	8c 93       	st	X, r24
     1ea:	df 91       	pop	r29
     1ec:	cf 91       	pop	r28
     1ee:	08 95       	ret

000001f0 <servo_1>:
     1f0:	0f 93       	push	r16
     1f2:	1f 93       	push	r17
     1f4:	cf 93       	push	r28
     1f6:	df 93       	push	r29
     1f8:	cd b7       	in	r28, 0x3d	; 61
     1fa:	de b7       	in	r29, 0x3e	; 62
     1fc:	25 97       	sbiw	r28, 0x05	; 5
     1fe:	0f b6       	in	r0, 0x3f	; 63
     200:	f8 94       	cli
     202:	de bf       	out	0x3e, r29	; 62
     204:	0f be       	out	0x3f, r0	; 63
     206:	cd bf       	out	0x3d, r28	; 61
     208:	8d 83       	std	Y+5, r24	; 0x05
     20a:	80 e0       	ldi	r24, 0x00	; 0
     20c:	90 e0       	ldi	r25, 0x00	; 0
     20e:	a0 e0       	ldi	r26, 0x00	; 0
     210:	b0 e0       	ldi	r27, 0x00	; 0
     212:	89 83       	std	Y+1, r24	; 0x01
     214:	9a 83       	std	Y+2, r25	; 0x02
     216:	ab 83       	std	Y+3, r26	; 0x03
     218:	bc 83       	std	Y+4, r27	; 0x04
     21a:	8d 81       	ldd	r24, Y+5	; 0x05
     21c:	88 2f       	mov	r24, r24
     21e:	90 e0       	ldi	r25, 0x00	; 0
     220:	a0 e0       	ldi	r26, 0x00	; 0
     222:	b0 e0       	ldi	r27, 0x00	; 0
     224:	bc 01       	movw	r22, r24
     226:	cd 01       	movw	r24, r26
     228:	0e 94 10 12 	call	0x2420	; 0x2420 <__floatunsisf>
     22c:	dc 01       	movw	r26, r24
     22e:	cb 01       	movw	r24, r22
     230:	20 e0       	ldi	r18, 0x00	; 0
     232:	30 e0       	ldi	r19, 0x00	; 0
     234:	40 e1       	ldi	r20, 0x10	; 16
     236:	50 e4       	ldi	r21, 0x40	; 64
     238:	bc 01       	movw	r22, r24
     23a:	cd 01       	movw	r24, r26
     23c:	0e 94 66 10 	call	0x20cc	; 0x20cc <__divsf3>
     240:	dc 01       	movw	r26, r24
     242:	cb 01       	movw	r24, r22
     244:	20 e0       	ldi	r18, 0x00	; 0
     246:	30 e0       	ldi	r19, 0x00	; 0
     248:	48 ea       	ldi	r20, 0xA8	; 168
     24a:	51 e4       	ldi	r21, 0x41	; 65
     24c:	bc 01       	movw	r22, r24
     24e:	cd 01       	movw	r24, r26
     250:	0e 94 3a 0f 	call	0x1e74	; 0x1e74 <__addsf3>
     254:	dc 01       	movw	r26, r24
     256:	cb 01       	movw	r24, r22
     258:	89 83       	std	Y+1, r24	; 0x01
     25a:	9a 83       	std	Y+2, r25	; 0x02
     25c:	ab 83       	std	Y+3, r26	; 0x03
     25e:	bc 83       	std	Y+4, r27	; 0x04
     260:	e9 e8       	ldi	r30, 0x89	; 137
     262:	f0 e0       	ldi	r31, 0x00	; 0
     264:	10 82       	st	Z, r1
     266:	08 e8       	ldi	r16, 0x88	; 136
     268:	10 e0       	ldi	r17, 0x00	; 0
     26a:	69 81       	ldd	r22, Y+1	; 0x01
     26c:	7a 81       	ldd	r23, Y+2	; 0x02
     26e:	8b 81       	ldd	r24, Y+3	; 0x03
     270:	9c 81       	ldd	r25, Y+4	; 0x04
     272:	0e 94 9d 0d 	call	0x1b3a	; 0x1b3a <__fixunssfsi>
     276:	dc 01       	movw	r26, r24
     278:	cb 01       	movw	r24, r22
     27a:	f8 01       	movw	r30, r16
     27c:	80 83       	st	Z, r24
     27e:	25 96       	adiw	r28, 0x05	; 5
     280:	0f b6       	in	r0, 0x3f	; 63
     282:	f8 94       	cli
     284:	de bf       	out	0x3e, r29	; 62
     286:	0f be       	out	0x3f, r0	; 63
     288:	cd bf       	out	0x3d, r28	; 61
     28a:	df 91       	pop	r29
     28c:	cf 91       	pop	r28
     28e:	1f 91       	pop	r17
     290:	0f 91       	pop	r16
     292:	08 95       	ret

00000294 <servo_2>:
     294:	0f 93       	push	r16
     296:	1f 93       	push	r17
     298:	cf 93       	push	r28
     29a:	df 93       	push	r29
     29c:	cd b7       	in	r28, 0x3d	; 61
     29e:	de b7       	in	r29, 0x3e	; 62
     2a0:	25 97       	sbiw	r28, 0x05	; 5
     2a2:	0f b6       	in	r0, 0x3f	; 63
     2a4:	f8 94       	cli
     2a6:	de bf       	out	0x3e, r29	; 62
     2a8:	0f be       	out	0x3f, r0	; 63
     2aa:	cd bf       	out	0x3d, r28	; 61
     2ac:	8d 83       	std	Y+5, r24	; 0x05
     2ae:	80 e0       	ldi	r24, 0x00	; 0
     2b0:	90 e0       	ldi	r25, 0x00	; 0
     2b2:	a0 e0       	ldi	r26, 0x00	; 0
     2b4:	b0 e0       	ldi	r27, 0x00	; 0
     2b6:	89 83       	std	Y+1, r24	; 0x01
     2b8:	9a 83       	std	Y+2, r25	; 0x02
     2ba:	ab 83       	std	Y+3, r26	; 0x03
     2bc:	bc 83       	std	Y+4, r27	; 0x04
     2be:	8d 81       	ldd	r24, Y+5	; 0x05
     2c0:	88 2f       	mov	r24, r24
     2c2:	90 e0       	ldi	r25, 0x00	; 0
     2c4:	a0 e0       	ldi	r26, 0x00	; 0
     2c6:	b0 e0       	ldi	r27, 0x00	; 0
     2c8:	bc 01       	movw	r22, r24
     2ca:	cd 01       	movw	r24, r26
     2cc:	0e 94 10 12 	call	0x2420	; 0x2420 <__floatunsisf>
     2d0:	dc 01       	movw	r26, r24
     2d2:	cb 01       	movw	r24, r22
     2d4:	20 e0       	ldi	r18, 0x00	; 0
     2d6:	30 e0       	ldi	r19, 0x00	; 0
     2d8:	40 e1       	ldi	r20, 0x10	; 16
     2da:	50 e4       	ldi	r21, 0x40	; 64
     2dc:	bc 01       	movw	r22, r24
     2de:	cd 01       	movw	r24, r26
     2e0:	0e 94 66 10 	call	0x20cc	; 0x20cc <__divsf3>
     2e4:	dc 01       	movw	r26, r24
     2e6:	cb 01       	movw	r24, r22
     2e8:	20 e0       	ldi	r18, 0x00	; 0
     2ea:	30 e0       	ldi	r19, 0x00	; 0
     2ec:	48 ea       	ldi	r20, 0xA8	; 168
     2ee:	51 e4       	ldi	r21, 0x41	; 65
     2f0:	bc 01       	movw	r22, r24
     2f2:	cd 01       	movw	r24, r26
     2f4:	0e 94 3a 0f 	call	0x1e74	; 0x1e74 <__addsf3>
     2f8:	dc 01       	movw	r26, r24
     2fa:	cb 01       	movw	r24, r22
     2fc:	89 83       	std	Y+1, r24	; 0x01
     2fe:	9a 83       	std	Y+2, r25	; 0x02
     300:	ab 83       	std	Y+3, r26	; 0x03
     302:	bc 83       	std	Y+4, r27	; 0x04
     304:	eb e8       	ldi	r30, 0x8B	; 139
     306:	f0 e0       	ldi	r31, 0x00	; 0
     308:	10 82       	st	Z, r1
     30a:	0a e8       	ldi	r16, 0x8A	; 138
     30c:	10 e0       	ldi	r17, 0x00	; 0
     30e:	69 81       	ldd	r22, Y+1	; 0x01
     310:	7a 81       	ldd	r23, Y+2	; 0x02
     312:	8b 81       	ldd	r24, Y+3	; 0x03
     314:	9c 81       	ldd	r25, Y+4	; 0x04
     316:	0e 94 9d 0d 	call	0x1b3a	; 0x1b3a <__fixunssfsi>
     31a:	dc 01       	movw	r26, r24
     31c:	cb 01       	movw	r24, r22
     31e:	f8 01       	movw	r30, r16
     320:	80 83       	st	Z, r24
     322:	25 96       	adiw	r28, 0x05	; 5
     324:	0f b6       	in	r0, 0x3f	; 63
     326:	f8 94       	cli
     328:	de bf       	out	0x3e, r29	; 62
     32a:	0f be       	out	0x3f, r0	; 63
     32c:	cd bf       	out	0x3d, r28	; 61
     32e:	df 91       	pop	r29
     330:	cf 91       	pop	r28
     332:	1f 91       	pop	r17
     334:	0f 91       	pop	r16
     336:	08 95       	ret

00000338 <servo_3>:
     338:	0f 93       	push	r16
     33a:	1f 93       	push	r17
     33c:	cf 93       	push	r28
     33e:	df 93       	push	r29
     340:	cd b7       	in	r28, 0x3d	; 61
     342:	de b7       	in	r29, 0x3e	; 62
     344:	25 97       	sbiw	r28, 0x05	; 5
     346:	0f b6       	in	r0, 0x3f	; 63
     348:	f8 94       	cli
     34a:	de bf       	out	0x3e, r29	; 62
     34c:	0f be       	out	0x3f, r0	; 63
     34e:	cd bf       	out	0x3d, r28	; 61
     350:	8d 83       	std	Y+5, r24	; 0x05
     352:	80 e0       	ldi	r24, 0x00	; 0
     354:	90 e0       	ldi	r25, 0x00	; 0
     356:	a0 e0       	ldi	r26, 0x00	; 0
     358:	b0 e0       	ldi	r27, 0x00	; 0
     35a:	89 83       	std	Y+1, r24	; 0x01
     35c:	9a 83       	std	Y+2, r25	; 0x02
     35e:	ab 83       	std	Y+3, r26	; 0x03
     360:	bc 83       	std	Y+4, r27	; 0x04
     362:	8d 81       	ldd	r24, Y+5	; 0x05
     364:	88 2f       	mov	r24, r24
     366:	90 e0       	ldi	r25, 0x00	; 0
     368:	a0 e0       	ldi	r26, 0x00	; 0
     36a:	b0 e0       	ldi	r27, 0x00	; 0
     36c:	bc 01       	movw	r22, r24
     36e:	cd 01       	movw	r24, r26
     370:	0e 94 10 12 	call	0x2420	; 0x2420 <__floatunsisf>
     374:	dc 01       	movw	r26, r24
     376:	cb 01       	movw	r24, r22
     378:	20 e0       	ldi	r18, 0x00	; 0
     37a:	30 e0       	ldi	r19, 0x00	; 0
     37c:	40 e1       	ldi	r20, 0x10	; 16
     37e:	50 e4       	ldi	r21, 0x40	; 64
     380:	bc 01       	movw	r22, r24
     382:	cd 01       	movw	r24, r26
     384:	0e 94 66 10 	call	0x20cc	; 0x20cc <__divsf3>
     388:	dc 01       	movw	r26, r24
     38a:	cb 01       	movw	r24, r22
     38c:	20 e0       	ldi	r18, 0x00	; 0
     38e:	30 e0       	ldi	r19, 0x00	; 0
     390:	48 ea       	ldi	r20, 0xA8	; 168
     392:	51 e4       	ldi	r21, 0x41	; 65
     394:	bc 01       	movw	r22, r24
     396:	cd 01       	movw	r24, r26
     398:	0e 94 3a 0f 	call	0x1e74	; 0x1e74 <__addsf3>
     39c:	dc 01       	movw	r26, r24
     39e:	cb 01       	movw	r24, r22
     3a0:	89 83       	std	Y+1, r24	; 0x01
     3a2:	9a 83       	std	Y+2, r25	; 0x02
     3a4:	ab 83       	std	Y+3, r26	; 0x03
     3a6:	bc 83       	std	Y+4, r27	; 0x04
     3a8:	ed e8       	ldi	r30, 0x8D	; 141
     3aa:	f0 e0       	ldi	r31, 0x00	; 0
     3ac:	10 82       	st	Z, r1
     3ae:	0c e8       	ldi	r16, 0x8C	; 140
     3b0:	10 e0       	ldi	r17, 0x00	; 0
     3b2:	69 81       	ldd	r22, Y+1	; 0x01
     3b4:	7a 81       	ldd	r23, Y+2	; 0x02
     3b6:	8b 81       	ldd	r24, Y+3	; 0x03
     3b8:	9c 81       	ldd	r25, Y+4	; 0x04
     3ba:	0e 94 9d 0d 	call	0x1b3a	; 0x1b3a <__fixunssfsi>
     3be:	dc 01       	movw	r26, r24
     3c0:	cb 01       	movw	r24, r22
     3c2:	f8 01       	movw	r30, r16
     3c4:	80 83       	st	Z, r24
     3c6:	25 96       	adiw	r28, 0x05	; 5
     3c8:	0f b6       	in	r0, 0x3f	; 63
     3ca:	f8 94       	cli
     3cc:	de bf       	out	0x3e, r29	; 62
     3ce:	0f be       	out	0x3f, r0	; 63
     3d0:	cd bf       	out	0x3d, r28	; 61
     3d2:	df 91       	pop	r29
     3d4:	cf 91       	pop	r28
     3d6:	1f 91       	pop	r17
     3d8:	0f 91       	pop	r16
     3da:	08 95       	ret

000003dc <timer1_init>:
     3dc:	cf 93       	push	r28
     3de:	df 93       	push	r29
     3e0:	cd b7       	in	r28, 0x3d	; 61
     3e2:	de b7       	in	r29, 0x3e	; 62
     3e4:	e1 e8       	ldi	r30, 0x81	; 129
     3e6:	f0 e0       	ldi	r31, 0x00	; 0
     3e8:	10 82       	st	Z, r1
     3ea:	e5 e8       	ldi	r30, 0x85	; 133
     3ec:	f0 e0       	ldi	r31, 0x00	; 0
     3ee:	8c ef       	ldi	r24, 0xFC	; 252
     3f0:	80 83       	st	Z, r24
     3f2:	e4 e8       	ldi	r30, 0x84	; 132
     3f4:	f0 e0       	ldi	r31, 0x00	; 0
     3f6:	81 e0       	ldi	r24, 0x01	; 1
     3f8:	80 83       	st	Z, r24
     3fa:	e9 e8       	ldi	r30, 0x89	; 137
     3fc:	f0 e0       	ldi	r31, 0x00	; 0
     3fe:	83 e0       	ldi	r24, 0x03	; 3
     400:	80 83       	st	Z, r24
     402:	e8 e8       	ldi	r30, 0x88	; 136
     404:	f0 e0       	ldi	r31, 0x00	; 0
     406:	8f ef       	ldi	r24, 0xFF	; 255
     408:	80 83       	st	Z, r24
     40a:	eb e8       	ldi	r30, 0x8B	; 139
     40c:	f0 e0       	ldi	r31, 0x00	; 0
     40e:	83 e0       	ldi	r24, 0x03	; 3
     410:	80 83       	st	Z, r24
     412:	ea e8       	ldi	r30, 0x8A	; 138
     414:	f0 e0       	ldi	r31, 0x00	; 0
     416:	8f ef       	ldi	r24, 0xFF	; 255
     418:	80 83       	st	Z, r24
     41a:	ed e8       	ldi	r30, 0x8D	; 141
     41c:	f0 e0       	ldi	r31, 0x00	; 0
     41e:	83 e0       	ldi	r24, 0x03	; 3
     420:	80 83       	st	Z, r24
     422:	ec e8       	ldi	r30, 0x8C	; 140
     424:	f0 e0       	ldi	r31, 0x00	; 0
     426:	8f ef       	ldi	r24, 0xFF	; 255
     428:	80 83       	st	Z, r24
     42a:	e7 e8       	ldi	r30, 0x87	; 135
     42c:	f0 e0       	ldi	r31, 0x00	; 0
     42e:	83 e0       	ldi	r24, 0x03	; 3
     430:	80 83       	st	Z, r24
     432:	e6 e8       	ldi	r30, 0x86	; 134
     434:	f0 e0       	ldi	r31, 0x00	; 0
     436:	8f ef       	ldi	r24, 0xFF	; 255
     438:	80 83       	st	Z, r24
     43a:	e0 e8       	ldi	r30, 0x80	; 128
     43c:	f0 e0       	ldi	r31, 0x00	; 0
     43e:	8b ea       	ldi	r24, 0xAB	; 171
     440:	80 83       	st	Z, r24
     442:	e2 e8       	ldi	r30, 0x82	; 130
     444:	f0 e0       	ldi	r31, 0x00	; 0
     446:	10 82       	st	Z, r1
     448:	e1 e8       	ldi	r30, 0x81	; 129
     44a:	f0 e0       	ldi	r31, 0x00	; 0
     44c:	8c e0       	ldi	r24, 0x0C	; 12
     44e:	80 83       	st	Z, r24
     450:	df 91       	pop	r29
     452:	cf 91       	pop	r28
     454:	08 95       	ret

00000456 <left_encoder_pin_config>:
     456:	cf 93       	push	r28
     458:	df 93       	push	r29
     45a:	cd b7       	in	r28, 0x3d	; 61
     45c:	de b7       	in	r29, 0x3e	; 62
     45e:	ad e2       	ldi	r26, 0x2D	; 45
     460:	b0 e0       	ldi	r27, 0x00	; 0
     462:	ed e2       	ldi	r30, 0x2D	; 45
     464:	f0 e0       	ldi	r31, 0x00	; 0
     466:	90 81       	ld	r25, Z
     468:	8f ee       	ldi	r24, 0xEF	; 239
     46a:	89 23       	and	r24, r25
     46c:	8c 93       	st	X, r24
     46e:	ae e2       	ldi	r26, 0x2E	; 46
     470:	b0 e0       	ldi	r27, 0x00	; 0
     472:	ee e2       	ldi	r30, 0x2E	; 46
     474:	f0 e0       	ldi	r31, 0x00	; 0
     476:	80 81       	ld	r24, Z
     478:	80 61       	ori	r24, 0x10	; 16
     47a:	8c 93       	st	X, r24
     47c:	df 91       	pop	r29
     47e:	cf 91       	pop	r28
     480:	08 95       	ret

00000482 <right_encoder_pin_config>:
     482:	cf 93       	push	r28
     484:	df 93       	push	r29
     486:	cd b7       	in	r28, 0x3d	; 61
     488:	de b7       	in	r29, 0x3e	; 62
     48a:	ad e2       	ldi	r26, 0x2D	; 45
     48c:	b0 e0       	ldi	r27, 0x00	; 0
     48e:	ed e2       	ldi	r30, 0x2D	; 45
     490:	f0 e0       	ldi	r31, 0x00	; 0
     492:	90 81       	ld	r25, Z
     494:	8f ed       	ldi	r24, 0xDF	; 223
     496:	89 23       	and	r24, r25
     498:	8c 93       	st	X, r24
     49a:	ae e2       	ldi	r26, 0x2E	; 46
     49c:	b0 e0       	ldi	r27, 0x00	; 0
     49e:	ee e2       	ldi	r30, 0x2E	; 46
     4a0:	f0 e0       	ldi	r31, 0x00	; 0
     4a2:	80 81       	ld	r24, Z
     4a4:	80 62       	ori	r24, 0x20	; 32
     4a6:	8c 93       	st	X, r24
     4a8:	df 91       	pop	r29
     4aa:	cf 91       	pop	r28
     4ac:	08 95       	ret

000004ae <buzzer_pin_config>:
     4ae:	cf 93       	push	r28
     4b0:	df 93       	push	r29
     4b2:	cd b7       	in	r28, 0x3d	; 61
     4b4:	de b7       	in	r29, 0x3e	; 62
     4b6:	a7 e2       	ldi	r26, 0x27	; 39
     4b8:	b0 e0       	ldi	r27, 0x00	; 0
     4ba:	e7 e2       	ldi	r30, 0x27	; 39
     4bc:	f0 e0       	ldi	r31, 0x00	; 0
     4be:	80 81       	ld	r24, Z
     4c0:	88 60       	ori	r24, 0x08	; 8
     4c2:	8c 93       	st	X, r24
     4c4:	a8 e2       	ldi	r26, 0x28	; 40
     4c6:	b0 e0       	ldi	r27, 0x00	; 0
     4c8:	e8 e2       	ldi	r30, 0x28	; 40
     4ca:	f0 e0       	ldi	r31, 0x00	; 0
     4cc:	90 81       	ld	r25, Z
     4ce:	87 ef       	ldi	r24, 0xF7	; 247
     4d0:	89 23       	and	r24, r25
     4d2:	8c 93       	st	X, r24
     4d4:	df 91       	pop	r29
     4d6:	cf 91       	pop	r28
     4d8:	08 95       	ret

000004da <port_init>:
     4da:	cf 93       	push	r28
     4dc:	df 93       	push	r29
     4de:	cd b7       	in	r28, 0x3d	; 61
     4e0:	de b7       	in	r29, 0x3e	; 62
     4e2:	0e 94 95 00 	call	0x12a	; 0x12a <servo1_pin_config>
     4e6:	0e 94 aa 00 	call	0x154	; 0x154 <servo2_pin_config>
     4ea:	0e 94 bf 00 	call	0x17e	; 0x17e <servo3_pin_config>
     4ee:	0e 94 d4 00 	call	0x1a8	; 0x1a8 <motion_pin_config>
     4f2:	0e 94 5e 05 	call	0xabc	; 0xabc <adc_pin_config>
     4f6:	0e 94 2b 02 	call	0x456	; 0x456 <left_encoder_pin_config>
     4fa:	0e 94 41 02 	call	0x482	; 0x482 <right_encoder_pin_config>
     4fe:	0e 94 d4 00 	call	0x1a8	; 0x1a8 <motion_pin_config>
     502:	0e 94 57 02 	call	0x4ae	; 0x4ae <buzzer_pin_config>
     506:	df 91       	pop	r29
     508:	cf 91       	pop	r28
     50a:	08 95       	ret

0000050c <left_position_encoder_interrupt_init>:
     50c:	cf 93       	push	r28
     50e:	df 93       	push	r29
     510:	cd b7       	in	r28, 0x3d	; 61
     512:	de b7       	in	r29, 0x3e	; 62
     514:	f8 94       	cli
     516:	aa e6       	ldi	r26, 0x6A	; 106
     518:	b0 e0       	ldi	r27, 0x00	; 0
     51a:	ea e6       	ldi	r30, 0x6A	; 106
     51c:	f0 e0       	ldi	r31, 0x00	; 0
     51e:	80 81       	ld	r24, Z
     520:	82 60       	ori	r24, 0x02	; 2
     522:	8c 93       	st	X, r24
     524:	ad e3       	ldi	r26, 0x3D	; 61
     526:	b0 e0       	ldi	r27, 0x00	; 0
     528:	ed e3       	ldi	r30, 0x3D	; 61
     52a:	f0 e0       	ldi	r31, 0x00	; 0
     52c:	80 81       	ld	r24, Z
     52e:	80 61       	ori	r24, 0x10	; 16
     530:	8c 93       	st	X, r24
     532:	78 94       	sei
     534:	df 91       	pop	r29
     536:	cf 91       	pop	r28
     538:	08 95       	ret

0000053a <right_position_encoder_interrupt_init>:
     53a:	cf 93       	push	r28
     53c:	df 93       	push	r29
     53e:	cd b7       	in	r28, 0x3d	; 61
     540:	de b7       	in	r29, 0x3e	; 62
     542:	f8 94       	cli
     544:	aa e6       	ldi	r26, 0x6A	; 106
     546:	b0 e0       	ldi	r27, 0x00	; 0
     548:	ea e6       	ldi	r30, 0x6A	; 106
     54a:	f0 e0       	ldi	r31, 0x00	; 0
     54c:	80 81       	ld	r24, Z
     54e:	88 60       	ori	r24, 0x08	; 8
     550:	8c 93       	st	X, r24
     552:	ad e3       	ldi	r26, 0x3D	; 61
     554:	b0 e0       	ldi	r27, 0x00	; 0
     556:	ed e3       	ldi	r30, 0x3D	; 61
     558:	f0 e0       	ldi	r31, 0x00	; 0
     55a:	80 81       	ld	r24, Z
     55c:	80 62       	ori	r24, 0x20	; 32
     55e:	8c 93       	st	X, r24
     560:	78 94       	sei
     562:	df 91       	pop	r29
     564:	cf 91       	pop	r28
     566:	08 95       	ret

00000568 <__vector_6>:
     568:	1f 92       	push	r1
     56a:	0f 92       	push	r0
     56c:	0f b6       	in	r0, 0x3f	; 63
     56e:	0f 92       	push	r0
     570:	11 24       	eor	r1, r1
     572:	8f 93       	push	r24
     574:	9f 93       	push	r25
     576:	af 93       	push	r26
     578:	bf 93       	push	r27
     57a:	cf 93       	push	r28
     57c:	df 93       	push	r29
     57e:	cd b7       	in	r28, 0x3d	; 61
     580:	de b7       	in	r29, 0x3e	; 62
     582:	80 91 0c 03 	lds	r24, 0x030C
     586:	90 91 0d 03 	lds	r25, 0x030D
     58a:	a0 91 0e 03 	lds	r26, 0x030E
     58e:	b0 91 0f 03 	lds	r27, 0x030F
     592:	01 96       	adiw	r24, 0x01	; 1
     594:	a1 1d       	adc	r26, r1
     596:	b1 1d       	adc	r27, r1
     598:	80 93 0c 03 	sts	0x030C, r24
     59c:	90 93 0d 03 	sts	0x030D, r25
     5a0:	a0 93 0e 03 	sts	0x030E, r26
     5a4:	b0 93 0f 03 	sts	0x030F, r27
     5a8:	df 91       	pop	r29
     5aa:	cf 91       	pop	r28
     5ac:	bf 91       	pop	r27
     5ae:	af 91       	pop	r26
     5b0:	9f 91       	pop	r25
     5b2:	8f 91       	pop	r24
     5b4:	0f 90       	pop	r0
     5b6:	0f be       	out	0x3f, r0	; 63
     5b8:	0f 90       	pop	r0
     5ba:	1f 90       	pop	r1
     5bc:	18 95       	reti

000005be <__vector_5>:
     5be:	1f 92       	push	r1
     5c0:	0f 92       	push	r0
     5c2:	0f b6       	in	r0, 0x3f	; 63
     5c4:	0f 92       	push	r0
     5c6:	11 24       	eor	r1, r1
     5c8:	8f 93       	push	r24
     5ca:	9f 93       	push	r25
     5cc:	af 93       	push	r26
     5ce:	bf 93       	push	r27
     5d0:	cf 93       	push	r28
     5d2:	df 93       	push	r29
     5d4:	cd b7       	in	r28, 0x3d	; 61
     5d6:	de b7       	in	r29, 0x3e	; 62
     5d8:	80 91 08 03 	lds	r24, 0x0308
     5dc:	90 91 09 03 	lds	r25, 0x0309
     5e0:	a0 91 0a 03 	lds	r26, 0x030A
     5e4:	b0 91 0b 03 	lds	r27, 0x030B
     5e8:	01 96       	adiw	r24, 0x01	; 1
     5ea:	a1 1d       	adc	r26, r1
     5ec:	b1 1d       	adc	r27, r1
     5ee:	80 93 08 03 	sts	0x0308, r24
     5f2:	90 93 09 03 	sts	0x0309, r25
     5f6:	a0 93 0a 03 	sts	0x030A, r26
     5fa:	b0 93 0b 03 	sts	0x030B, r27
     5fe:	df 91       	pop	r29
     600:	cf 91       	pop	r28
     602:	bf 91       	pop	r27
     604:	af 91       	pop	r26
     606:	9f 91       	pop	r25
     608:	8f 91       	pop	r24
     60a:	0f 90       	pop	r0
     60c:	0f be       	out	0x3f, r0	; 63
     60e:	0f 90       	pop	r0
     610:	1f 90       	pop	r1
     612:	18 95       	reti

00000614 <forward>:
     614:	cf 93       	push	r28
     616:	df 93       	push	r29
     618:	cd b7       	in	r28, 0x3d	; 61
     61a:	de b7       	in	r29, 0x3e	; 62
     61c:	86 e0       	ldi	r24, 0x06	; 6
     61e:	90 e0       	ldi	r25, 0x00	; 0
     620:	0e 94 35 06 	call	0xc6a	; 0xc6a <motion_set>
     624:	df 91       	pop	r29
     626:	cf 91       	pop	r28
     628:	08 95       	ret

0000062a <back>:
     62a:	cf 93       	push	r28
     62c:	df 93       	push	r29
     62e:	cd b7       	in	r28, 0x3d	; 61
     630:	de b7       	in	r29, 0x3e	; 62
     632:	89 e0       	ldi	r24, 0x09	; 9
     634:	90 e0       	ldi	r25, 0x00	; 0
     636:	0e 94 35 06 	call	0xc6a	; 0xc6a <motion_set>
     63a:	df 91       	pop	r29
     63c:	cf 91       	pop	r28
     63e:	08 95       	ret

00000640 <left>:
     640:	cf 93       	push	r28
     642:	df 93       	push	r29
     644:	cd b7       	in	r28, 0x3d	; 61
     646:	de b7       	in	r29, 0x3e	; 62
     648:	85 e0       	ldi	r24, 0x05	; 5
     64a:	90 e0       	ldi	r25, 0x00	; 0
     64c:	0e 94 35 06 	call	0xc6a	; 0xc6a <motion_set>
     650:	df 91       	pop	r29
     652:	cf 91       	pop	r28
     654:	08 95       	ret

00000656 <right>:
     656:	cf 93       	push	r28
     658:	df 93       	push	r29
     65a:	cd b7       	in	r28, 0x3d	; 61
     65c:	de b7       	in	r29, 0x3e	; 62
     65e:	8a e0       	ldi	r24, 0x0A	; 10
     660:	90 e0       	ldi	r25, 0x00	; 0
     662:	0e 94 35 06 	call	0xc6a	; 0xc6a <motion_set>
     666:	df 91       	pop	r29
     668:	cf 91       	pop	r28
     66a:	08 95       	ret

0000066c <soft_left>:
     66c:	cf 93       	push	r28
     66e:	df 93       	push	r29
     670:	cd b7       	in	r28, 0x3d	; 61
     672:	de b7       	in	r29, 0x3e	; 62
     674:	84 e0       	ldi	r24, 0x04	; 4
     676:	90 e0       	ldi	r25, 0x00	; 0
     678:	0e 94 35 06 	call	0xc6a	; 0xc6a <motion_set>
     67c:	df 91       	pop	r29
     67e:	cf 91       	pop	r28
     680:	08 95       	ret

00000682 <soft_right>:
     682:	cf 93       	push	r28
     684:	df 93       	push	r29
     686:	cd b7       	in	r28, 0x3d	; 61
     688:	de b7       	in	r29, 0x3e	; 62
     68a:	82 e0       	ldi	r24, 0x02	; 2
     68c:	90 e0       	ldi	r25, 0x00	; 0
     68e:	0e 94 35 06 	call	0xc6a	; 0xc6a <motion_set>
     692:	df 91       	pop	r29
     694:	cf 91       	pop	r28
     696:	08 95       	ret

00000698 <soft_left_2>:
     698:	cf 93       	push	r28
     69a:	df 93       	push	r29
     69c:	cd b7       	in	r28, 0x3d	; 61
     69e:	de b7       	in	r29, 0x3e	; 62
     6a0:	81 e0       	ldi	r24, 0x01	; 1
     6a2:	90 e0       	ldi	r25, 0x00	; 0
     6a4:	0e 94 35 06 	call	0xc6a	; 0xc6a <motion_set>
     6a8:	df 91       	pop	r29
     6aa:	cf 91       	pop	r28
     6ac:	08 95       	ret

000006ae <soft_right_2>:
     6ae:	cf 93       	push	r28
     6b0:	df 93       	push	r29
     6b2:	cd b7       	in	r28, 0x3d	; 61
     6b4:	de b7       	in	r29, 0x3e	; 62
     6b6:	88 e0       	ldi	r24, 0x08	; 8
     6b8:	90 e0       	ldi	r25, 0x00	; 0
     6ba:	0e 94 35 06 	call	0xc6a	; 0xc6a <motion_set>
     6be:	df 91       	pop	r29
     6c0:	cf 91       	pop	r28
     6c2:	08 95       	ret

000006c4 <stop>:
     6c4:	cf 93       	push	r28
     6c6:	df 93       	push	r29
     6c8:	cd b7       	in	r28, 0x3d	; 61
     6ca:	de b7       	in	r29, 0x3e	; 62
     6cc:	80 e0       	ldi	r24, 0x00	; 0
     6ce:	90 e0       	ldi	r25, 0x00	; 0
     6d0:	0e 94 35 06 	call	0xc6a	; 0xc6a <motion_set>
     6d4:	df 91       	pop	r29
     6d6:	cf 91       	pop	r28
     6d8:	08 95       	ret

000006da <angle_rotate>:
     6da:	cf 93       	push	r28
     6dc:	df 93       	push	r29
     6de:	cd b7       	in	r28, 0x3d	; 61
     6e0:	de b7       	in	r29, 0x3e	; 62
     6e2:	2c 97       	sbiw	r28, 0x0c	; 12
     6e4:	0f b6       	in	r0, 0x3f	; 63
     6e6:	f8 94       	cli
     6e8:	de bf       	out	0x3e, r29	; 62
     6ea:	0f be       	out	0x3f, r0	; 63
     6ec:	cd bf       	out	0x3d, r28	; 61
     6ee:	9a 87       	std	Y+10, r25	; 0x0a
     6f0:	89 87       	std	Y+9, r24	; 0x09
     6f2:	80 e0       	ldi	r24, 0x00	; 0
     6f4:	90 e0       	ldi	r25, 0x00	; 0
     6f6:	a0 e0       	ldi	r26, 0x00	; 0
     6f8:	b0 e0       	ldi	r27, 0x00	; 0
     6fa:	8d 83       	std	Y+5, r24	; 0x05
     6fc:	9e 83       	std	Y+6, r25	; 0x06
     6fe:	af 83       	std	Y+7, r26	; 0x07
     700:	b8 87       	std	Y+8, r27	; 0x08
     702:	19 82       	std	Y+1, r1	; 0x01
     704:	1a 82       	std	Y+2, r1	; 0x02
     706:	1b 82       	std	Y+3, r1	; 0x03
     708:	1c 82       	std	Y+4, r1	; 0x04
     70a:	89 85       	ldd	r24, Y+9	; 0x09
     70c:	9a 85       	ldd	r25, Y+10	; 0x0a
     70e:	cc 01       	movw	r24, r24
     710:	a0 e0       	ldi	r26, 0x00	; 0
     712:	b0 e0       	ldi	r27, 0x00	; 0
     714:	bc 01       	movw	r22, r24
     716:	cd 01       	movw	r24, r26
     718:	0e 94 10 12 	call	0x2420	; 0x2420 <__floatunsisf>
     71c:	dc 01       	movw	r26, r24
     71e:	cb 01       	movw	r24, r22
     720:	28 e4       	ldi	r18, 0x48	; 72
     722:	31 ee       	ldi	r19, 0xE1	; 225
     724:	42 e8       	ldi	r20, 0x82	; 130
     726:	50 e4       	ldi	r21, 0x40	; 64
     728:	bc 01       	movw	r22, r24
     72a:	cd 01       	movw	r24, r26
     72c:	0e 94 66 10 	call	0x20cc	; 0x20cc <__divsf3>
     730:	dc 01       	movw	r26, r24
     732:	cb 01       	movw	r24, r22
     734:	8d 83       	std	Y+5, r24	; 0x05
     736:	9e 83       	std	Y+6, r25	; 0x06
     738:	af 83       	std	Y+7, r26	; 0x07
     73a:	b8 87       	std	Y+8, r27	; 0x08
     73c:	6d 81       	ldd	r22, Y+5	; 0x05
     73e:	7e 81       	ldd	r23, Y+6	; 0x06
     740:	8f 81       	ldd	r24, Y+7	; 0x07
     742:	98 85       	ldd	r25, Y+8	; 0x08
     744:	0e 94 9d 0d 	call	0x1b3a	; 0x1b3a <__fixunssfsi>
     748:	dc 01       	movw	r26, r24
     74a:	cb 01       	movw	r24, r22
     74c:	cc 01       	movw	r24, r24
     74e:	a0 e0       	ldi	r26, 0x00	; 0
     750:	b0 e0       	ldi	r27, 0x00	; 0
     752:	89 83       	std	Y+1, r24	; 0x01
     754:	9a 83       	std	Y+2, r25	; 0x02
     756:	ab 83       	std	Y+3, r26	; 0x03
     758:	bc 83       	std	Y+4, r27	; 0x04
     75a:	10 92 0c 03 	sts	0x030C, r1
     75e:	10 92 0d 03 	sts	0x030D, r1
     762:	10 92 0e 03 	sts	0x030E, r1
     766:	10 92 0f 03 	sts	0x030F, r1
     76a:	10 92 08 03 	sts	0x0308, r1
     76e:	10 92 09 03 	sts	0x0309, r1
     772:	10 92 0a 03 	sts	0x030A, r1
     776:	10 92 0b 03 	sts	0x030B, r1
     77a:	20 91 0c 03 	lds	r18, 0x030C
     77e:	30 91 0d 03 	lds	r19, 0x030D
     782:	40 91 0e 03 	lds	r20, 0x030E
     786:	50 91 0f 03 	lds	r21, 0x030F
     78a:	1c 86       	std	Y+12, r1	; 0x0c
     78c:	89 81       	ldd	r24, Y+1	; 0x01
     78e:	9a 81       	ldd	r25, Y+2	; 0x02
     790:	ab 81       	ldd	r26, Y+3	; 0x03
     792:	bc 81       	ldd	r27, Y+4	; 0x04
     794:	28 17       	cp	r18, r24
     796:	39 07       	cpc	r19, r25
     798:	4a 07       	cpc	r20, r26
     79a:	5b 07       	cpc	r21, r27
     79c:	10 f0       	brcs	.+4      	; 0x7a2 <angle_rotate+0xc8>
     79e:	81 e0       	ldi	r24, 0x01	; 1
     7a0:	8c 87       	std	Y+12, r24	; 0x0c
     7a2:	20 91 08 03 	lds	r18, 0x0308
     7a6:	30 91 09 03 	lds	r19, 0x0309
     7aa:	40 91 0a 03 	lds	r20, 0x030A
     7ae:	50 91 0b 03 	lds	r21, 0x030B
     7b2:	1b 86       	std	Y+11, r1	; 0x0b
     7b4:	89 81       	ldd	r24, Y+1	; 0x01
     7b6:	9a 81       	ldd	r25, Y+2	; 0x02
     7b8:	ab 81       	ldd	r26, Y+3	; 0x03
     7ba:	bc 81       	ldd	r27, Y+4	; 0x04
     7bc:	28 17       	cp	r18, r24
     7be:	39 07       	cpc	r19, r25
     7c0:	4a 07       	cpc	r20, r26
     7c2:	5b 07       	cpc	r21, r27
     7c4:	10 f0       	brcs	.+4      	; 0x7ca <angle_rotate+0xf0>
     7c6:	91 e0       	ldi	r25, 0x01	; 1
     7c8:	9b 87       	std	Y+11, r25	; 0x0b
     7ca:	8c 85       	ldd	r24, Y+12	; 0x0c
     7cc:	9b 85       	ldd	r25, Y+11	; 0x0b
     7ce:	89 2b       	or	r24, r25
     7d0:	88 23       	and	r24, r24
     7d2:	09 f4       	brne	.+2      	; 0x7d6 <angle_rotate+0xfc>
     7d4:	d2 cf       	rjmp	.-92     	; 0x77a <angle_rotate+0xa0>
     7d6:	0e 94 62 03 	call	0x6c4	; 0x6c4 <stop>
     7da:	2c 96       	adiw	r28, 0x0c	; 12
     7dc:	0f b6       	in	r0, 0x3f	; 63
     7de:	f8 94       	cli
     7e0:	de bf       	out	0x3e, r29	; 62
     7e2:	0f be       	out	0x3f, r0	; 63
     7e4:	cd bf       	out	0x3d, r28	; 61
     7e6:	df 91       	pop	r29
     7e8:	cf 91       	pop	r28
     7ea:	08 95       	ret

000007ec <linear_distance_mm>:
     7ec:	cf 93       	push	r28
     7ee:	df 93       	push	r29
     7f0:	cd b7       	in	r28, 0x3d	; 61
     7f2:	de b7       	in	r29, 0x3e	; 62
     7f4:	2a 97       	sbiw	r28, 0x0a	; 10
     7f6:	0f b6       	in	r0, 0x3f	; 63
     7f8:	f8 94       	cli
     7fa:	de bf       	out	0x3e, r29	; 62
     7fc:	0f be       	out	0x3f, r0	; 63
     7fe:	cd bf       	out	0x3d, r28	; 61
     800:	9a 87       	std	Y+10, r25	; 0x0a
     802:	89 87       	std	Y+9, r24	; 0x09
     804:	80 e0       	ldi	r24, 0x00	; 0
     806:	90 e0       	ldi	r25, 0x00	; 0
     808:	a0 e0       	ldi	r26, 0x00	; 0
     80a:	b0 e0       	ldi	r27, 0x00	; 0
     80c:	8d 83       	std	Y+5, r24	; 0x05
     80e:	9e 83       	std	Y+6, r25	; 0x06
     810:	af 83       	std	Y+7, r26	; 0x07
     812:	b8 87       	std	Y+8, r27	; 0x08
     814:	19 82       	std	Y+1, r1	; 0x01
     816:	1a 82       	std	Y+2, r1	; 0x02
     818:	1b 82       	std	Y+3, r1	; 0x03
     81a:	1c 82       	std	Y+4, r1	; 0x04
     81c:	89 85       	ldd	r24, Y+9	; 0x09
     81e:	9a 85       	ldd	r25, Y+10	; 0x0a
     820:	cc 01       	movw	r24, r24
     822:	a0 e0       	ldi	r26, 0x00	; 0
     824:	b0 e0       	ldi	r27, 0x00	; 0
     826:	bc 01       	movw	r22, r24
     828:	cd 01       	movw	r24, r26
     82a:	0e 94 10 12 	call	0x2420	; 0x2420 <__floatunsisf>
     82e:	dc 01       	movw	r26, r24
     830:	cb 01       	movw	r24, r22
     832:	25 ee       	ldi	r18, 0xE5	; 229
     834:	30 ed       	ldi	r19, 0xD0	; 208
     836:	4a ea       	ldi	r20, 0xAA	; 170
     838:	50 e4       	ldi	r21, 0x40	; 64
     83a:	bc 01       	movw	r22, r24
     83c:	cd 01       	movw	r24, r26
     83e:	0e 94 66 10 	call	0x20cc	; 0x20cc <__divsf3>
     842:	dc 01       	movw	r26, r24
     844:	cb 01       	movw	r24, r22
     846:	8d 83       	std	Y+5, r24	; 0x05
     848:	9e 83       	std	Y+6, r25	; 0x06
     84a:	af 83       	std	Y+7, r26	; 0x07
     84c:	b8 87       	std	Y+8, r27	; 0x08
     84e:	6d 81       	ldd	r22, Y+5	; 0x05
     850:	7e 81       	ldd	r23, Y+6	; 0x06
     852:	8f 81       	ldd	r24, Y+7	; 0x07
     854:	98 85       	ldd	r25, Y+8	; 0x08
     856:	0e 94 9d 0d 	call	0x1b3a	; 0x1b3a <__fixunssfsi>
     85a:	dc 01       	movw	r26, r24
     85c:	cb 01       	movw	r24, r22
     85e:	89 83       	std	Y+1, r24	; 0x01
     860:	9a 83       	std	Y+2, r25	; 0x02
     862:	ab 83       	std	Y+3, r26	; 0x03
     864:	bc 83       	std	Y+4, r27	; 0x04
     866:	10 92 0c 03 	sts	0x030C, r1
     86a:	10 92 0d 03 	sts	0x030D, r1
     86e:	10 92 0e 03 	sts	0x030E, r1
     872:	10 92 0f 03 	sts	0x030F, r1
     876:	20 91 0c 03 	lds	r18, 0x030C
     87a:	30 91 0d 03 	lds	r19, 0x030D
     87e:	40 91 0e 03 	lds	r20, 0x030E
     882:	50 91 0f 03 	lds	r21, 0x030F
     886:	89 81       	ldd	r24, Y+1	; 0x01
     888:	9a 81       	ldd	r25, Y+2	; 0x02
     88a:	ab 81       	ldd	r26, Y+3	; 0x03
     88c:	bc 81       	ldd	r27, Y+4	; 0x04
     88e:	82 17       	cp	r24, r18
     890:	93 07       	cpc	r25, r19
     892:	a4 07       	cpc	r26, r20
     894:	b5 07       	cpc	r27, r21
     896:	08 f0       	brcs	.+2      	; 0x89a <linear_distance_mm+0xae>
     898:	ee cf       	rjmp	.-36     	; 0x876 <linear_distance_mm+0x8a>
     89a:	0e 94 62 03 	call	0x6c4	; 0x6c4 <stop>
     89e:	2a 96       	adiw	r28, 0x0a	; 10
     8a0:	0f b6       	in	r0, 0x3f	; 63
     8a2:	f8 94       	cli
     8a4:	de bf       	out	0x3e, r29	; 62
     8a6:	0f be       	out	0x3f, r0	; 63
     8a8:	cd bf       	out	0x3d, r28	; 61
     8aa:	df 91       	pop	r29
     8ac:	cf 91       	pop	r28
     8ae:	08 95       	ret

000008b0 <forward_mm>:
     8b0:	cf 93       	push	r28
     8b2:	df 93       	push	r29
     8b4:	cd b7       	in	r28, 0x3d	; 61
     8b6:	de b7       	in	r29, 0x3e	; 62
     8b8:	22 97       	sbiw	r28, 0x02	; 2
     8ba:	0f b6       	in	r0, 0x3f	; 63
     8bc:	f8 94       	cli
     8be:	de bf       	out	0x3e, r29	; 62
     8c0:	0f be       	out	0x3f, r0	; 63
     8c2:	cd bf       	out	0x3d, r28	; 61
     8c4:	9a 83       	std	Y+2, r25	; 0x02
     8c6:	89 83       	std	Y+1, r24	; 0x01
     8c8:	0e 94 0a 03 	call	0x614	; 0x614 <forward>
     8cc:	89 81       	ldd	r24, Y+1	; 0x01
     8ce:	9a 81       	ldd	r25, Y+2	; 0x02
     8d0:	0e 94 f6 03 	call	0x7ec	; 0x7ec <linear_distance_mm>
     8d4:	22 96       	adiw	r28, 0x02	; 2
     8d6:	0f b6       	in	r0, 0x3f	; 63
     8d8:	f8 94       	cli
     8da:	de bf       	out	0x3e, r29	; 62
     8dc:	0f be       	out	0x3f, r0	; 63
     8de:	cd bf       	out	0x3d, r28	; 61
     8e0:	df 91       	pop	r29
     8e2:	cf 91       	pop	r28
     8e4:	08 95       	ret

000008e6 <back_mm>:
     8e6:	cf 93       	push	r28
     8e8:	df 93       	push	r29
     8ea:	cd b7       	in	r28, 0x3d	; 61
     8ec:	de b7       	in	r29, 0x3e	; 62
     8ee:	22 97       	sbiw	r28, 0x02	; 2
     8f0:	0f b6       	in	r0, 0x3f	; 63
     8f2:	f8 94       	cli
     8f4:	de bf       	out	0x3e, r29	; 62
     8f6:	0f be       	out	0x3f, r0	; 63
     8f8:	cd bf       	out	0x3d, r28	; 61
     8fa:	9a 83       	std	Y+2, r25	; 0x02
     8fc:	89 83       	std	Y+1, r24	; 0x01
     8fe:	0e 94 15 03 	call	0x62a	; 0x62a <back>
     902:	89 81       	ldd	r24, Y+1	; 0x01
     904:	9a 81       	ldd	r25, Y+2	; 0x02
     906:	0e 94 f6 03 	call	0x7ec	; 0x7ec <linear_distance_mm>
     90a:	22 96       	adiw	r28, 0x02	; 2
     90c:	0f b6       	in	r0, 0x3f	; 63
     90e:	f8 94       	cli
     910:	de bf       	out	0x3e, r29	; 62
     912:	0f be       	out	0x3f, r0	; 63
     914:	cd bf       	out	0x3d, r28	; 61
     916:	df 91       	pop	r29
     918:	cf 91       	pop	r28
     91a:	08 95       	ret

0000091c <left_degrees>:
     91c:	cf 93       	push	r28
     91e:	df 93       	push	r29
     920:	cd b7       	in	r28, 0x3d	; 61
     922:	de b7       	in	r29, 0x3e	; 62
     924:	22 97       	sbiw	r28, 0x02	; 2
     926:	0f b6       	in	r0, 0x3f	; 63
     928:	f8 94       	cli
     92a:	de bf       	out	0x3e, r29	; 62
     92c:	0f be       	out	0x3f, r0	; 63
     92e:	cd bf       	out	0x3d, r28	; 61
     930:	9a 83       	std	Y+2, r25	; 0x02
     932:	89 83       	std	Y+1, r24	; 0x01
     934:	0e 94 20 03 	call	0x640	; 0x640 <left>
     938:	89 81       	ldd	r24, Y+1	; 0x01
     93a:	9a 81       	ldd	r25, Y+2	; 0x02
     93c:	0e 94 6d 03 	call	0x6da	; 0x6da <angle_rotate>
     940:	22 96       	adiw	r28, 0x02	; 2
     942:	0f b6       	in	r0, 0x3f	; 63
     944:	f8 94       	cli
     946:	de bf       	out	0x3e, r29	; 62
     948:	0f be       	out	0x3f, r0	; 63
     94a:	cd bf       	out	0x3d, r28	; 61
     94c:	df 91       	pop	r29
     94e:	cf 91       	pop	r28
     950:	08 95       	ret

00000952 <right_degrees>:
     952:	cf 93       	push	r28
     954:	df 93       	push	r29
     956:	cd b7       	in	r28, 0x3d	; 61
     958:	de b7       	in	r29, 0x3e	; 62
     95a:	22 97       	sbiw	r28, 0x02	; 2
     95c:	0f b6       	in	r0, 0x3f	; 63
     95e:	f8 94       	cli
     960:	de bf       	out	0x3e, r29	; 62
     962:	0f be       	out	0x3f, r0	; 63
     964:	cd bf       	out	0x3d, r28	; 61
     966:	9a 83       	std	Y+2, r25	; 0x02
     968:	89 83       	std	Y+1, r24	; 0x01
     96a:	0e 94 2b 03 	call	0x656	; 0x656 <right>
     96e:	89 81       	ldd	r24, Y+1	; 0x01
     970:	9a 81       	ldd	r25, Y+2	; 0x02
     972:	0e 94 6d 03 	call	0x6da	; 0x6da <angle_rotate>
     976:	22 96       	adiw	r28, 0x02	; 2
     978:	0f b6       	in	r0, 0x3f	; 63
     97a:	f8 94       	cli
     97c:	de bf       	out	0x3e, r29	; 62
     97e:	0f be       	out	0x3f, r0	; 63
     980:	cd bf       	out	0x3d, r28	; 61
     982:	df 91       	pop	r29
     984:	cf 91       	pop	r28
     986:	08 95       	ret

00000988 <soft_left_degrees>:
     988:	cf 93       	push	r28
     98a:	df 93       	push	r29
     98c:	cd b7       	in	r28, 0x3d	; 61
     98e:	de b7       	in	r29, 0x3e	; 62
     990:	22 97       	sbiw	r28, 0x02	; 2
     992:	0f b6       	in	r0, 0x3f	; 63
     994:	f8 94       	cli
     996:	de bf       	out	0x3e, r29	; 62
     998:	0f be       	out	0x3f, r0	; 63
     99a:	cd bf       	out	0x3d, r28	; 61
     99c:	9a 83       	std	Y+2, r25	; 0x02
     99e:	89 83       	std	Y+1, r24	; 0x01
     9a0:	0e 94 36 03 	call	0x66c	; 0x66c <soft_left>
     9a4:	89 81       	ldd	r24, Y+1	; 0x01
     9a6:	9a 81       	ldd	r25, Y+2	; 0x02
     9a8:	88 0f       	add	r24, r24
     9aa:	99 1f       	adc	r25, r25
     9ac:	9a 83       	std	Y+2, r25	; 0x02
     9ae:	89 83       	std	Y+1, r24	; 0x01
     9b0:	89 81       	ldd	r24, Y+1	; 0x01
     9b2:	9a 81       	ldd	r25, Y+2	; 0x02
     9b4:	0e 94 6d 03 	call	0x6da	; 0x6da <angle_rotate>
     9b8:	22 96       	adiw	r28, 0x02	; 2
     9ba:	0f b6       	in	r0, 0x3f	; 63
     9bc:	f8 94       	cli
     9be:	de bf       	out	0x3e, r29	; 62
     9c0:	0f be       	out	0x3f, r0	; 63
     9c2:	cd bf       	out	0x3d, r28	; 61
     9c4:	df 91       	pop	r29
     9c6:	cf 91       	pop	r28
     9c8:	08 95       	ret

000009ca <soft_right_degrees>:
     9ca:	cf 93       	push	r28
     9cc:	df 93       	push	r29
     9ce:	cd b7       	in	r28, 0x3d	; 61
     9d0:	de b7       	in	r29, 0x3e	; 62
     9d2:	22 97       	sbiw	r28, 0x02	; 2
     9d4:	0f b6       	in	r0, 0x3f	; 63
     9d6:	f8 94       	cli
     9d8:	de bf       	out	0x3e, r29	; 62
     9da:	0f be       	out	0x3f, r0	; 63
     9dc:	cd bf       	out	0x3d, r28	; 61
     9de:	9a 83       	std	Y+2, r25	; 0x02
     9e0:	89 83       	std	Y+1, r24	; 0x01
     9e2:	0e 94 41 03 	call	0x682	; 0x682 <soft_right>
     9e6:	89 81       	ldd	r24, Y+1	; 0x01
     9e8:	9a 81       	ldd	r25, Y+2	; 0x02
     9ea:	88 0f       	add	r24, r24
     9ec:	99 1f       	adc	r25, r25
     9ee:	9a 83       	std	Y+2, r25	; 0x02
     9f0:	89 83       	std	Y+1, r24	; 0x01
     9f2:	89 81       	ldd	r24, Y+1	; 0x01
     9f4:	9a 81       	ldd	r25, Y+2	; 0x02
     9f6:	0e 94 6d 03 	call	0x6da	; 0x6da <angle_rotate>
     9fa:	22 96       	adiw	r28, 0x02	; 2
     9fc:	0f b6       	in	r0, 0x3f	; 63
     9fe:	f8 94       	cli
     a00:	de bf       	out	0x3e, r29	; 62
     a02:	0f be       	out	0x3f, r0	; 63
     a04:	cd bf       	out	0x3d, r28	; 61
     a06:	df 91       	pop	r29
     a08:	cf 91       	pop	r28
     a0a:	08 95       	ret

00000a0c <soft_left_2_degrees>:
     a0c:	cf 93       	push	r28
     a0e:	df 93       	push	r29
     a10:	cd b7       	in	r28, 0x3d	; 61
     a12:	de b7       	in	r29, 0x3e	; 62
     a14:	22 97       	sbiw	r28, 0x02	; 2
     a16:	0f b6       	in	r0, 0x3f	; 63
     a18:	f8 94       	cli
     a1a:	de bf       	out	0x3e, r29	; 62
     a1c:	0f be       	out	0x3f, r0	; 63
     a1e:	cd bf       	out	0x3d, r28	; 61
     a20:	9a 83       	std	Y+2, r25	; 0x02
     a22:	89 83       	std	Y+1, r24	; 0x01
     a24:	0e 94 4c 03 	call	0x698	; 0x698 <soft_left_2>
     a28:	89 81       	ldd	r24, Y+1	; 0x01
     a2a:	9a 81       	ldd	r25, Y+2	; 0x02
     a2c:	88 0f       	add	r24, r24
     a2e:	99 1f       	adc	r25, r25
     a30:	9a 83       	std	Y+2, r25	; 0x02
     a32:	89 83       	std	Y+1, r24	; 0x01
     a34:	89 81       	ldd	r24, Y+1	; 0x01
     a36:	9a 81       	ldd	r25, Y+2	; 0x02
     a38:	0e 94 6d 03 	call	0x6da	; 0x6da <angle_rotate>
     a3c:	22 96       	adiw	r28, 0x02	; 2
     a3e:	0f b6       	in	r0, 0x3f	; 63
     a40:	f8 94       	cli
     a42:	de bf       	out	0x3e, r29	; 62
     a44:	0f be       	out	0x3f, r0	; 63
     a46:	cd bf       	out	0x3d, r28	; 61
     a48:	df 91       	pop	r29
     a4a:	cf 91       	pop	r28
     a4c:	08 95       	ret

00000a4e <soft_right_2_degrees>:
     a4e:	cf 93       	push	r28
     a50:	df 93       	push	r29
     a52:	cd b7       	in	r28, 0x3d	; 61
     a54:	de b7       	in	r29, 0x3e	; 62
     a56:	22 97       	sbiw	r28, 0x02	; 2
     a58:	0f b6       	in	r0, 0x3f	; 63
     a5a:	f8 94       	cli
     a5c:	de bf       	out	0x3e, r29	; 62
     a5e:	0f be       	out	0x3f, r0	; 63
     a60:	cd bf       	out	0x3d, r28	; 61
     a62:	9a 83       	std	Y+2, r25	; 0x02
     a64:	89 83       	std	Y+1, r24	; 0x01
     a66:	0e 94 57 03 	call	0x6ae	; 0x6ae <soft_right_2>
     a6a:	89 81       	ldd	r24, Y+1	; 0x01
     a6c:	9a 81       	ldd	r25, Y+2	; 0x02
     a6e:	88 0f       	add	r24, r24
     a70:	99 1f       	adc	r25, r25
     a72:	9a 83       	std	Y+2, r25	; 0x02
     a74:	89 83       	std	Y+1, r24	; 0x01
     a76:	89 81       	ldd	r24, Y+1	; 0x01
     a78:	9a 81       	ldd	r25, Y+2	; 0x02
     a7a:	0e 94 6d 03 	call	0x6da	; 0x6da <angle_rotate>
     a7e:	22 96       	adiw	r28, 0x02	; 2
     a80:	0f b6       	in	r0, 0x3f	; 63
     a82:	f8 94       	cli
     a84:	de bf       	out	0x3e, r29	; 62
     a86:	0f be       	out	0x3f, r0	; 63
     a88:	cd bf       	out	0x3d, r28	; 61
     a8a:	df 91       	pop	r29
     a8c:	cf 91       	pop	r28
     a8e:	08 95       	ret

00000a90 <lcd_port_config>:
     a90:	cf 93       	push	r28
     a92:	df 93       	push	r29
     a94:	cd b7       	in	r28, 0x3d	; 61
     a96:	de b7       	in	r29, 0x3e	; 62
     a98:	a7 e2       	ldi	r26, 0x27	; 39
     a9a:	b0 e0       	ldi	r27, 0x00	; 0
     a9c:	e7 e2       	ldi	r30, 0x27	; 39
     a9e:	f0 e0       	ldi	r31, 0x00	; 0
     aa0:	80 81       	ld	r24, Z
     aa2:	87 6f       	ori	r24, 0xF7	; 247
     aa4:	8c 93       	st	X, r24
     aa6:	a8 e2       	ldi	r26, 0x28	; 40
     aa8:	b0 e0       	ldi	r27, 0x00	; 0
     aaa:	e8 e2       	ldi	r30, 0x28	; 40
     aac:	f0 e0       	ldi	r31, 0x00	; 0
     aae:	90 81       	ld	r25, Z
     ab0:	80 e8       	ldi	r24, 0x80	; 128
     ab2:	89 23       	and	r24, r25
     ab4:	8c 93       	st	X, r24
     ab6:	df 91       	pop	r29
     ab8:	cf 91       	pop	r28
     aba:	08 95       	ret

00000abc <adc_pin_config>:
     abc:	cf 93       	push	r28
     abe:	df 93       	push	r29
     ac0:	cd b7       	in	r28, 0x3d	; 61
     ac2:	de b7       	in	r29, 0x3e	; 62
     ac4:	e0 e3       	ldi	r30, 0x30	; 48
     ac6:	f0 e0       	ldi	r31, 0x00	; 0
     ac8:	10 82       	st	Z, r1
     aca:	e1 e3       	ldi	r30, 0x31	; 49
     acc:	f0 e0       	ldi	r31, 0x00	; 0
     ace:	10 82       	st	Z, r1
     ad0:	e7 e0       	ldi	r30, 0x07	; 7
     ad2:	f1 e0       	ldi	r31, 0x01	; 1
     ad4:	10 82       	st	Z, r1
     ad6:	e8 e0       	ldi	r30, 0x08	; 8
     ad8:	f1 e0       	ldi	r31, 0x01	; 1
     ada:	10 82       	st	Z, r1
     adc:	df 91       	pop	r29
     ade:	cf 91       	pop	r28
     ae0:	08 95       	ret

00000ae2 <timer5_init>:
     ae2:	cf 93       	push	r28
     ae4:	df 93       	push	r29
     ae6:	cd b7       	in	r28, 0x3d	; 61
     ae8:	de b7       	in	r29, 0x3e	; 62
     aea:	e1 e2       	ldi	r30, 0x21	; 33
     aec:	f1 e0       	ldi	r31, 0x01	; 1
     aee:	10 82       	st	Z, r1
     af0:	e5 e2       	ldi	r30, 0x25	; 37
     af2:	f1 e0       	ldi	r31, 0x01	; 1
     af4:	8f ef       	ldi	r24, 0xFF	; 255
     af6:	80 83       	st	Z, r24
     af8:	e4 e2       	ldi	r30, 0x24	; 36
     afa:	f1 e0       	ldi	r31, 0x01	; 1
     afc:	81 e0       	ldi	r24, 0x01	; 1
     afe:	80 83       	st	Z, r24
     b00:	e9 e2       	ldi	r30, 0x29	; 41
     b02:	f1 e0       	ldi	r31, 0x01	; 1
     b04:	10 82       	st	Z, r1
     b06:	e8 e2       	ldi	r30, 0x28	; 40
     b08:	f1 e0       	ldi	r31, 0x01	; 1
     b0a:	8f ef       	ldi	r24, 0xFF	; 255
     b0c:	80 83       	st	Z, r24
     b0e:	eb e2       	ldi	r30, 0x2B	; 43
     b10:	f1 e0       	ldi	r31, 0x01	; 1
     b12:	10 82       	st	Z, r1
     b14:	ea e2       	ldi	r30, 0x2A	; 42
     b16:	f1 e0       	ldi	r31, 0x01	; 1
     b18:	8f ef       	ldi	r24, 0xFF	; 255
     b1a:	80 83       	st	Z, r24
     b1c:	ed e2       	ldi	r30, 0x2D	; 45
     b1e:	f1 e0       	ldi	r31, 0x01	; 1
     b20:	10 82       	st	Z, r1
     b22:	ec e2       	ldi	r30, 0x2C	; 44
     b24:	f1 e0       	ldi	r31, 0x01	; 1
     b26:	8f ef       	ldi	r24, 0xFF	; 255
     b28:	80 83       	st	Z, r24
     b2a:	e0 e2       	ldi	r30, 0x20	; 32
     b2c:	f1 e0       	ldi	r31, 0x01	; 1
     b2e:	89 ea       	ldi	r24, 0xA9	; 169
     b30:	80 83       	st	Z, r24
     b32:	e1 e2       	ldi	r30, 0x21	; 33
     b34:	f1 e0       	ldi	r31, 0x01	; 1
     b36:	8b e0       	ldi	r24, 0x0B	; 11
     b38:	80 83       	st	Z, r24
     b3a:	df 91       	pop	r29
     b3c:	cf 91       	pop	r28
     b3e:	08 95       	ret

00000b40 <adc_init>:
     b40:	cf 93       	push	r28
     b42:	df 93       	push	r29
     b44:	cd b7       	in	r28, 0x3d	; 61
     b46:	de b7       	in	r29, 0x3e	; 62
     b48:	ea e7       	ldi	r30, 0x7A	; 122
     b4a:	f0 e0       	ldi	r31, 0x00	; 0
     b4c:	10 82       	st	Z, r1
     b4e:	eb e7       	ldi	r30, 0x7B	; 123
     b50:	f0 e0       	ldi	r31, 0x00	; 0
     b52:	10 82       	st	Z, r1
     b54:	ec e7       	ldi	r30, 0x7C	; 124
     b56:	f0 e0       	ldi	r31, 0x00	; 0
     b58:	80 e2       	ldi	r24, 0x20	; 32
     b5a:	80 83       	st	Z, r24
     b5c:	e0 e5       	ldi	r30, 0x50	; 80
     b5e:	f0 e0       	ldi	r31, 0x00	; 0
     b60:	80 e8       	ldi	r24, 0x80	; 128
     b62:	80 83       	st	Z, r24
     b64:	ea e7       	ldi	r30, 0x7A	; 122
     b66:	f0 e0       	ldi	r31, 0x00	; 0
     b68:	86 e8       	ldi	r24, 0x86	; 134
     b6a:	80 83       	st	Z, r24
     b6c:	df 91       	pop	r29
     b6e:	cf 91       	pop	r28
     b70:	08 95       	ret

00000b72 <ADC_Conversion>:
     b72:	cf 93       	push	r28
     b74:	df 93       	push	r29
     b76:	cd b7       	in	r28, 0x3d	; 61
     b78:	de b7       	in	r29, 0x3e	; 62
     b7a:	22 97       	sbiw	r28, 0x02	; 2
     b7c:	0f b6       	in	r0, 0x3f	; 63
     b7e:	f8 94       	cli
     b80:	de bf       	out	0x3e, r29	; 62
     b82:	0f be       	out	0x3f, r0	; 63
     b84:	cd bf       	out	0x3d, r28	; 61
     b86:	8a 83       	std	Y+2, r24	; 0x02
     b88:	8a 81       	ldd	r24, Y+2	; 0x02
     b8a:	88 30       	cpi	r24, 0x08	; 8
     b8c:	20 f0       	brcs	.+8      	; 0xb96 <ADC_Conversion+0x24>
     b8e:	eb e7       	ldi	r30, 0x7B	; 123
     b90:	f0 e0       	ldi	r31, 0x00	; 0
     b92:	88 e0       	ldi	r24, 0x08	; 8
     b94:	80 83       	st	Z, r24
     b96:	8a 81       	ldd	r24, Y+2	; 0x02
     b98:	87 70       	andi	r24, 0x07	; 7
     b9a:	8a 83       	std	Y+2, r24	; 0x02
     b9c:	ec e7       	ldi	r30, 0x7C	; 124
     b9e:	f0 e0       	ldi	r31, 0x00	; 0
     ba0:	8a 81       	ldd	r24, Y+2	; 0x02
     ba2:	80 62       	ori	r24, 0x20	; 32
     ba4:	80 83       	st	Z, r24
     ba6:	aa e7       	ldi	r26, 0x7A	; 122
     ba8:	b0 e0       	ldi	r27, 0x00	; 0
     baa:	ea e7       	ldi	r30, 0x7A	; 122
     bac:	f0 e0       	ldi	r31, 0x00	; 0
     bae:	80 81       	ld	r24, Z
     bb0:	80 64       	ori	r24, 0x40	; 64
     bb2:	8c 93       	st	X, r24
     bb4:	ea e7       	ldi	r30, 0x7A	; 122
     bb6:	f0 e0       	ldi	r31, 0x00	; 0
     bb8:	80 81       	ld	r24, Z
     bba:	88 2f       	mov	r24, r24
     bbc:	90 e0       	ldi	r25, 0x00	; 0
     bbe:	80 71       	andi	r24, 0x10	; 16
     bc0:	90 70       	andi	r25, 0x00	; 0
     bc2:	00 97       	sbiw	r24, 0x00	; 0
     bc4:	b9 f3       	breq	.-18     	; 0xbb4 <ADC_Conversion+0x42>
     bc6:	e9 e7       	ldi	r30, 0x79	; 121
     bc8:	f0 e0       	ldi	r31, 0x00	; 0
     bca:	80 81       	ld	r24, Z
     bcc:	89 83       	std	Y+1, r24	; 0x01
     bce:	aa e7       	ldi	r26, 0x7A	; 122
     bd0:	b0 e0       	ldi	r27, 0x00	; 0
     bd2:	ea e7       	ldi	r30, 0x7A	; 122
     bd4:	f0 e0       	ldi	r31, 0x00	; 0
     bd6:	80 81       	ld	r24, Z
     bd8:	80 61       	ori	r24, 0x10	; 16
     bda:	8c 93       	st	X, r24
     bdc:	eb e7       	ldi	r30, 0x7B	; 123
     bde:	f0 e0       	ldi	r31, 0x00	; 0
     be0:	10 82       	st	Z, r1
     be2:	89 81       	ldd	r24, Y+1	; 0x01
     be4:	88 2f       	mov	r24, r24
     be6:	90 e0       	ldi	r25, 0x00	; 0
     be8:	22 96       	adiw	r28, 0x02	; 2
     bea:	0f b6       	in	r0, 0x3f	; 63
     bec:	f8 94       	cli
     bee:	de bf       	out	0x3e, r29	; 62
     bf0:	0f be       	out	0x3f, r0	; 63
     bf2:	cd bf       	out	0x3d, r28	; 61
     bf4:	df 91       	pop	r29
     bf6:	cf 91       	pop	r28
     bf8:	08 95       	ret

00000bfa <print_sensor>:
     bfa:	cf 93       	push	r28
     bfc:	df 93       	push	r29
     bfe:	cd b7       	in	r28, 0x3d	; 61
     c00:	de b7       	in	r29, 0x3e	; 62
     c02:	23 97       	sbiw	r28, 0x03	; 3
     c04:	0f b6       	in	r0, 0x3f	; 63
     c06:	f8 94       	cli
     c08:	de bf       	out	0x3e, r29	; 62
     c0a:	0f be       	out	0x3f, r0	; 63
     c0c:	cd bf       	out	0x3d, r28	; 61
     c0e:	89 83       	std	Y+1, r24	; 0x01
     c10:	6a 83       	std	Y+2, r22	; 0x02
     c12:	4b 83       	std	Y+3, r20	; 0x03
     c14:	8b 81       	ldd	r24, Y+3	; 0x03
     c16:	0e 94 b9 05 	call	0xb72	; 0xb72 <ADC_Conversion>
     c1a:	80 93 1c 03 	sts	0x031C, r24
     c1e:	23 96       	adiw	r28, 0x03	; 3
     c20:	0f b6       	in	r0, 0x3f	; 63
     c22:	f8 94       	cli
     c24:	de bf       	out	0x3e, r29	; 62
     c26:	0f be       	out	0x3f, r0	; 63
     c28:	cd bf       	out	0x3d, r28	; 61
     c2a:	df 91       	pop	r29
     c2c:	cf 91       	pop	r28
     c2e:	08 95       	ret

00000c30 <velocity>:
     c30:	cf 93       	push	r28
     c32:	df 93       	push	r29
     c34:	cd b7       	in	r28, 0x3d	; 61
     c36:	de b7       	in	r29, 0x3e	; 62
     c38:	22 97       	sbiw	r28, 0x02	; 2
     c3a:	0f b6       	in	r0, 0x3f	; 63
     c3c:	f8 94       	cli
     c3e:	de bf       	out	0x3e, r29	; 62
     c40:	0f be       	out	0x3f, r0	; 63
     c42:	cd bf       	out	0x3d, r28	; 61
     c44:	89 83       	std	Y+1, r24	; 0x01
     c46:	6a 83       	std	Y+2, r22	; 0x02
     c48:	e8 e2       	ldi	r30, 0x28	; 40
     c4a:	f1 e0       	ldi	r31, 0x01	; 1
     c4c:	89 81       	ldd	r24, Y+1	; 0x01
     c4e:	80 83       	st	Z, r24
     c50:	ea e2       	ldi	r30, 0x2A	; 42
     c52:	f1 e0       	ldi	r31, 0x01	; 1
     c54:	8a 81       	ldd	r24, Y+2	; 0x02
     c56:	80 83       	st	Z, r24
     c58:	22 96       	adiw	r28, 0x02	; 2
     c5a:	0f b6       	in	r0, 0x3f	; 63
     c5c:	f8 94       	cli
     c5e:	de bf       	out	0x3e, r29	; 62
     c60:	0f be       	out	0x3f, r0	; 63
     c62:	cd bf       	out	0x3d, r28	; 61
     c64:	df 91       	pop	r29
     c66:	cf 91       	pop	r28
     c68:	08 95       	ret

00000c6a <motion_set>:
     c6a:	cf 93       	push	r28
     c6c:	df 93       	push	r29
     c6e:	cd b7       	in	r28, 0x3d	; 61
     c70:	de b7       	in	r29, 0x3e	; 62
     c72:	22 97       	sbiw	r28, 0x02	; 2
     c74:	0f b6       	in	r0, 0x3f	; 63
     c76:	f8 94       	cli
     c78:	de bf       	out	0x3e, r29	; 62
     c7a:	0f be       	out	0x3f, r0	; 63
     c7c:	cd bf       	out	0x3d, r28	; 61
     c7e:	8a 83       	std	Y+2, r24	; 0x02
     c80:	19 82       	std	Y+1, r1	; 0x01
     c82:	8a 81       	ldd	r24, Y+2	; 0x02
     c84:	8f 70       	andi	r24, 0x0F	; 15
     c86:	8a 83       	std	Y+2, r24	; 0x02
     c88:	e2 e2       	ldi	r30, 0x22	; 34
     c8a:	f0 e0       	ldi	r31, 0x00	; 0
     c8c:	80 81       	ld	r24, Z
     c8e:	89 83       	std	Y+1, r24	; 0x01
     c90:	90 ef       	ldi	r25, 0xF0	; 240
     c92:	89 81       	ldd	r24, Y+1	; 0x01
     c94:	89 23       	and	r24, r25
     c96:	89 83       	std	Y+1, r24	; 0x01
     c98:	99 81       	ldd	r25, Y+1	; 0x01
     c9a:	8a 81       	ldd	r24, Y+2	; 0x02
     c9c:	89 2b       	or	r24, r25
     c9e:	89 83       	std	Y+1, r24	; 0x01
     ca0:	e2 e2       	ldi	r30, 0x22	; 34
     ca2:	f0 e0       	ldi	r31, 0x00	; 0
     ca4:	89 81       	ldd	r24, Y+1	; 0x01
     ca6:	80 83       	st	Z, r24
     ca8:	22 96       	adiw	r28, 0x02	; 2
     caa:	0f b6       	in	r0, 0x3f	; 63
     cac:	f8 94       	cli
     cae:	de bf       	out	0x3e, r29	; 62
     cb0:	0f be       	out	0x3f, r0	; 63
     cb2:	cd bf       	out	0x3d, r28	; 61
     cb4:	df 91       	pop	r29
     cb6:	cf 91       	pop	r28
     cb8:	08 95       	ret

00000cba <buzzer_on>:
     cba:	cf 93       	push	r28
     cbc:	df 93       	push	r29
     cbe:	cd b7       	in	r28, 0x3d	; 61
     cc0:	de b7       	in	r29, 0x3e	; 62
     cc2:	21 97       	sbiw	r28, 0x01	; 1
     cc4:	0f b6       	in	r0, 0x3f	; 63
     cc6:	f8 94       	cli
     cc8:	de bf       	out	0x3e, r29	; 62
     cca:	0f be       	out	0x3f, r0	; 63
     ccc:	cd bf       	out	0x3d, r28	; 61
     cce:	19 82       	std	Y+1, r1	; 0x01
     cd0:	e6 e2       	ldi	r30, 0x26	; 38
     cd2:	f0 e0       	ldi	r31, 0x00	; 0
     cd4:	80 81       	ld	r24, Z
     cd6:	89 83       	std	Y+1, r24	; 0x01
     cd8:	89 81       	ldd	r24, Y+1	; 0x01
     cda:	88 60       	ori	r24, 0x08	; 8
     cdc:	89 83       	std	Y+1, r24	; 0x01
     cde:	e8 e2       	ldi	r30, 0x28	; 40
     ce0:	f0 e0       	ldi	r31, 0x00	; 0
     ce2:	89 81       	ldd	r24, Y+1	; 0x01
     ce4:	80 83       	st	Z, r24
     ce6:	21 96       	adiw	r28, 0x01	; 1
     ce8:	0f b6       	in	r0, 0x3f	; 63
     cea:	f8 94       	cli
     cec:	de bf       	out	0x3e, r29	; 62
     cee:	0f be       	out	0x3f, r0	; 63
     cf0:	cd bf       	out	0x3d, r28	; 61
     cf2:	df 91       	pop	r29
     cf4:	cf 91       	pop	r28
     cf6:	08 95       	ret

00000cf8 <buzzer_off>:
     cf8:	cf 93       	push	r28
     cfa:	df 93       	push	r29
     cfc:	cd b7       	in	r28, 0x3d	; 61
     cfe:	de b7       	in	r29, 0x3e	; 62
     d00:	21 97       	sbiw	r28, 0x01	; 1
     d02:	0f b6       	in	r0, 0x3f	; 63
     d04:	f8 94       	cli
     d06:	de bf       	out	0x3e, r29	; 62
     d08:	0f be       	out	0x3f, r0	; 63
     d0a:	cd bf       	out	0x3d, r28	; 61
     d0c:	19 82       	std	Y+1, r1	; 0x01
     d0e:	e6 e2       	ldi	r30, 0x26	; 38
     d10:	f0 e0       	ldi	r31, 0x00	; 0
     d12:	80 81       	ld	r24, Z
     d14:	89 83       	std	Y+1, r24	; 0x01
     d16:	97 ef       	ldi	r25, 0xF7	; 247
     d18:	89 81       	ldd	r24, Y+1	; 0x01
     d1a:	89 23       	and	r24, r25
     d1c:	89 83       	std	Y+1, r24	; 0x01
     d1e:	e8 e2       	ldi	r30, 0x28	; 40
     d20:	f0 e0       	ldi	r31, 0x00	; 0
     d22:	89 81       	ldd	r24, Y+1	; 0x01
     d24:	80 83       	st	Z, r24
     d26:	21 96       	adiw	r28, 0x01	; 1
     d28:	0f b6       	in	r0, 0x3f	; 63
     d2a:	f8 94       	cli
     d2c:	de bf       	out	0x3e, r29	; 62
     d2e:	0f be       	out	0x3f, r0	; 63
     d30:	cd bf       	out	0x3d, r28	; 61
     d32:	df 91       	pop	r29
     d34:	cf 91       	pop	r28
     d36:	08 95       	ret

00000d38 <uart0_init>:
     d38:	cf 93       	push	r28
     d3a:	df 93       	push	r29
     d3c:	cd b7       	in	r28, 0x3d	; 61
     d3e:	de b7       	in	r29, 0x3e	; 62
     d40:	e1 ec       	ldi	r30, 0xC1	; 193
     d42:	f0 e0       	ldi	r31, 0x00	; 0
     d44:	10 82       	st	Z, r1
     d46:	e0 ec       	ldi	r30, 0xC0	; 192
     d48:	f0 e0       	ldi	r31, 0x00	; 0
     d4a:	10 82       	st	Z, r1
     d4c:	e2 ec       	ldi	r30, 0xC2	; 194
     d4e:	f0 e0       	ldi	r31, 0x00	; 0
     d50:	86 e0       	ldi	r24, 0x06	; 6
     d52:	80 83       	st	Z, r24
     d54:	e4 ec       	ldi	r30, 0xC4	; 196
     d56:	f0 e0       	ldi	r31, 0x00	; 0
     d58:	87 e4       	ldi	r24, 0x47	; 71
     d5a:	80 83       	st	Z, r24
     d5c:	e5 ec       	ldi	r30, 0xC5	; 197
     d5e:	f0 e0       	ldi	r31, 0x00	; 0
     d60:	10 82       	st	Z, r1
     d62:	e1 ec       	ldi	r30, 0xC1	; 193
     d64:	f0 e0       	ldi	r31, 0x00	; 0
     d66:	88 e9       	ldi	r24, 0x98	; 152
     d68:	80 83       	st	Z, r24
     d6a:	df 91       	pop	r29
     d6c:	cf 91       	pop	r28
     d6e:	08 95       	ret

00000d70 <do_work>:
     d70:	cf 93       	push	r28
     d72:	df 93       	push	r29
     d74:	cd b7       	in	r28, 0x3d	; 61
     d76:	de b7       	in	r29, 0x3e	; 62
     d78:	a4 97       	sbiw	r28, 0x24	; 36
     d7a:	0f b6       	in	r0, 0x3f	; 63
     d7c:	f8 94       	cli
     d7e:	de bf       	out	0x3e, r29	; 62
     d80:	0f be       	out	0x3f, r0	; 63
     d82:	cd bf       	out	0x3d, r28	; 61
     d84:	0e 94 79 0d 	call	0x1af2	; 0x1af2 <init_devices>
     d88:	80 e0       	ldi	r24, 0x00	; 0
     d8a:	90 e0       	ldi	r25, 0x00	; 0
     d8c:	a0 e0       	ldi	r26, 0x00	; 0
     d8e:	b0 e0       	ldi	r27, 0x00	; 0
     d90:	89 a3       	std	Y+33, r24	; 0x21
     d92:	9a a3       	std	Y+34, r25	; 0x22
     d94:	ab a3       	std	Y+35, r26	; 0x23
     d96:	bc a3       	std	Y+36, r27	; 0x24
     d98:	1d 8e       	std	Y+29, r1	; 0x1d
     d9a:	1e 8e       	std	Y+30, r1	; 0x1e
     d9c:	1f 8e       	std	Y+31, r1	; 0x1f
     d9e:	18 a2       	std	Y+32, r1	; 0x20
     da0:	8e e6       	ldi	r24, 0x6E	; 110
     da2:	9e ed       	ldi	r25, 0xDE	; 222
     da4:	a5 e9       	ldi	r26, 0x95	; 149
     da6:	b1 e4       	ldi	r27, 0x41	; 65
     da8:	89 a3       	std	Y+33, r24	; 0x21
     daa:	9a a3       	std	Y+34, r25	; 0x22
     dac:	ab a3       	std	Y+35, r26	; 0x23
     dae:	bc a3       	std	Y+36, r27	; 0x24
     db0:	69 a1       	ldd	r22, Y+33	; 0x21
     db2:	7a a1       	ldd	r23, Y+34	; 0x22
     db4:	8b a1       	ldd	r24, Y+35	; 0x23
     db6:	9c a1       	ldd	r25, Y+36	; 0x24
     db8:	0e 94 9d 0d 	call	0x1b3a	; 0x1b3a <__fixunssfsi>
     dbc:	dc 01       	movw	r26, r24
     dbe:	cb 01       	movw	r24, r22
     dc0:	8d 8f       	std	Y+29, r24	; 0x1d
     dc2:	9e 8f       	std	Y+30, r25	; 0x1e
     dc4:	af 8f       	std	Y+31, r26	; 0x1f
     dc6:	b8 a3       	std	Y+32, r27	; 0x20
     dc8:	10 92 0c 03 	sts	0x030C, r1
     dcc:	10 92 0d 03 	sts	0x030D, r1
     dd0:	10 92 0e 03 	sts	0x030E, r1
     dd4:	10 92 0f 03 	sts	0x030F, r1
     dd8:	83 e0       	ldi	r24, 0x03	; 3
     dda:	0e 94 b9 05 	call	0xb72	; 0xb72 <ADC_Conversion>
     dde:	80 93 13 03 	sts	0x0313, r24
     de2:	82 e0       	ldi	r24, 0x02	; 2
     de4:	0e 94 b9 05 	call	0xb72	; 0xb72 <ADC_Conversion>
     de8:	80 93 14 03 	sts	0x0314, r24
     dec:	81 e0       	ldi	r24, 0x01	; 1
     dee:	0e 94 b9 05 	call	0xb72	; 0xb72 <ADC_Conversion>
     df2:	80 93 15 03 	sts	0x0315, r24
     df6:	10 92 12 03 	sts	0x0312, r1
     dfa:	20 91 0c 03 	lds	r18, 0x030C
     dfe:	30 91 0d 03 	lds	r19, 0x030D
     e02:	40 91 0e 03 	lds	r20, 0x030E
     e06:	50 91 0f 03 	lds	r21, 0x030F
     e0a:	8d 8d       	ldd	r24, Y+29	; 0x1d
     e0c:	9e 8d       	ldd	r25, Y+30	; 0x1e
     e0e:	af 8d       	ldd	r26, Y+31	; 0x1f
     e10:	b8 a1       	ldd	r27, Y+32	; 0x20
     e12:	82 17       	cp	r24, r18
     e14:	93 07       	cpc	r25, r19
     e16:	a4 07       	cpc	r26, r20
     e18:	b5 07       	cpc	r27, r21
     e1a:	08 f0       	brcs	.+2      	; 0xe1e <do_work+0xae>
     e1c:	fd c0       	rjmp	.+506    	; 0x1018 <do_work+0x2a8>
     e1e:	0e 94 62 03 	call	0x6c4	; 0x6c4 <stop>
     e22:	84 eb       	ldi	r24, 0xB4	; 180
     e24:	0e 94 f8 00 	call	0x1f0	; 0x1f0 <servo_1>
     e28:	80 e0       	ldi	r24, 0x00	; 0
     e2a:	90 e0       	ldi	r25, 0x00	; 0
     e2c:	aa ef       	ldi	r26, 0xFA	; 250
     e2e:	b4 e4       	ldi	r27, 0x44	; 68
     e30:	89 8f       	std	Y+25, r24	; 0x19
     e32:	9a 8f       	std	Y+26, r25	; 0x1a
     e34:	ab 8f       	std	Y+27, r26	; 0x1b
     e36:	bc 8f       	std	Y+28, r27	; 0x1c
     e38:	2d ec       	ldi	r18, 0xCD	; 205
     e3a:	3c ec       	ldi	r19, 0xCC	; 204
     e3c:	4c e2       	ldi	r20, 0x2C	; 44
     e3e:	55 e4       	ldi	r21, 0x45	; 69
     e40:	69 8d       	ldd	r22, Y+25	; 0x19
     e42:	7a 8d       	ldd	r23, Y+26	; 0x1a
     e44:	8b 8d       	ldd	r24, Y+27	; 0x1b
     e46:	9c 8d       	ldd	r25, Y+28	; 0x1c
     e48:	0e 94 67 0f 	call	0x1ece	; 0x1ece <__mulsf3>
     e4c:	dc 01       	movw	r26, r24
     e4e:	cb 01       	movw	r24, r22
     e50:	8d 8b       	std	Y+21, r24	; 0x15
     e52:	9e 8b       	std	Y+22, r25	; 0x16
     e54:	af 8b       	std	Y+23, r26	; 0x17
     e56:	b8 8f       	std	Y+24, r27	; 0x18
     e58:	20 e0       	ldi	r18, 0x00	; 0
     e5a:	30 e0       	ldi	r19, 0x00	; 0
     e5c:	40 e8       	ldi	r20, 0x80	; 128
     e5e:	5f e3       	ldi	r21, 0x3F	; 63
     e60:	6d 89       	ldd	r22, Y+21	; 0x15
     e62:	7e 89       	ldd	r23, Y+22	; 0x16
     e64:	8f 89       	ldd	r24, Y+23	; 0x17
     e66:	98 8d       	ldd	r25, Y+24	; 0x18
     e68:	0e 94 87 11 	call	0x230e	; 0x230e <__ltsf2>
     e6c:	88 23       	and	r24, r24
     e6e:	0c f0       	brlt	.+2      	; 0xe72 <do_work+0x102>
     e70:	05 c0       	rjmp	.+10     	; 0xe7c <do_work+0x10c>
     e72:	81 e0       	ldi	r24, 0x01	; 1
     e74:	90 e0       	ldi	r25, 0x00	; 0
     e76:	9c 8b       	std	Y+20, r25	; 0x14
     e78:	8b 8b       	std	Y+19, r24	; 0x13
     e7a:	40 c0       	rjmp	.+128    	; 0xefc <do_work+0x18c>
     e7c:	20 e0       	ldi	r18, 0x00	; 0
     e7e:	3f ef       	ldi	r19, 0xFF	; 255
     e80:	4f e7       	ldi	r20, 0x7F	; 127
     e82:	57 e4       	ldi	r21, 0x47	; 71
     e84:	6d 89       	ldd	r22, Y+21	; 0x15
     e86:	7e 89       	ldd	r23, Y+22	; 0x16
     e88:	8f 89       	ldd	r24, Y+23	; 0x17
     e8a:	98 8d       	ldd	r25, Y+24	; 0x18
     e8c:	0e 94 1b 11 	call	0x2236	; 0x2236 <__gtsf2>
     e90:	18 16       	cp	r1, r24
     e92:	0c f0       	brlt	.+2      	; 0xe96 <do_work+0x126>
     e94:	29 c0       	rjmp	.+82     	; 0xee8 <do_work+0x178>
     e96:	20 e0       	ldi	r18, 0x00	; 0
     e98:	30 e0       	ldi	r19, 0x00	; 0
     e9a:	40 e2       	ldi	r20, 0x20	; 32
     e9c:	51 e4       	ldi	r21, 0x41	; 65
     e9e:	69 8d       	ldd	r22, Y+25	; 0x19
     ea0:	7a 8d       	ldd	r23, Y+26	; 0x1a
     ea2:	8b 8d       	ldd	r24, Y+27	; 0x1b
     ea4:	9c 8d       	ldd	r25, Y+28	; 0x1c
     ea6:	0e 94 67 0f 	call	0x1ece	; 0x1ece <__mulsf3>
     eaa:	dc 01       	movw	r26, r24
     eac:	cb 01       	movw	r24, r22
     eae:	bc 01       	movw	r22, r24
     eb0:	cd 01       	movw	r24, r26
     eb2:	0e 94 9d 0d 	call	0x1b3a	; 0x1b3a <__fixunssfsi>
     eb6:	dc 01       	movw	r26, r24
     eb8:	cb 01       	movw	r24, r22
     eba:	9c 8b       	std	Y+20, r25	; 0x14
     ebc:	8b 8b       	std	Y+19, r24	; 0x13
     ebe:	0f c0       	rjmp	.+30     	; 0xede <do_work+0x16e>
     ec0:	84 e1       	ldi	r24, 0x14	; 20
     ec2:	91 e0       	ldi	r25, 0x01	; 1
     ec4:	9a 8b       	std	Y+18, r25	; 0x12
     ec6:	89 8b       	std	Y+17, r24	; 0x11
     ec8:	89 89       	ldd	r24, Y+17	; 0x11
     eca:	9a 89       	ldd	r25, Y+18	; 0x12
     ecc:	01 97       	sbiw	r24, 0x01	; 1
     ece:	f1 f7       	brne	.-4      	; 0xecc <do_work+0x15c>
     ed0:	9a 8b       	std	Y+18, r25	; 0x12
     ed2:	89 8b       	std	Y+17, r24	; 0x11
     ed4:	8b 89       	ldd	r24, Y+19	; 0x13
     ed6:	9c 89       	ldd	r25, Y+20	; 0x14
     ed8:	01 97       	sbiw	r24, 0x01	; 1
     eda:	9c 8b       	std	Y+20, r25	; 0x14
     edc:	8b 8b       	std	Y+19, r24	; 0x13
     ede:	8b 89       	ldd	r24, Y+19	; 0x13
     ee0:	9c 89       	ldd	r25, Y+20	; 0x14
     ee2:	00 97       	sbiw	r24, 0x00	; 0
     ee4:	69 f7       	brne	.-38     	; 0xec0 <do_work+0x150>
     ee6:	14 c0       	rjmp	.+40     	; 0xf10 <do_work+0x1a0>
     ee8:	6d 89       	ldd	r22, Y+21	; 0x15
     eea:	7e 89       	ldd	r23, Y+22	; 0x16
     eec:	8f 89       	ldd	r24, Y+23	; 0x17
     eee:	98 8d       	ldd	r25, Y+24	; 0x18
     ef0:	0e 94 9d 0d 	call	0x1b3a	; 0x1b3a <__fixunssfsi>
     ef4:	dc 01       	movw	r26, r24
     ef6:	cb 01       	movw	r24, r22
     ef8:	9c 8b       	std	Y+20, r25	; 0x14
     efa:	8b 8b       	std	Y+19, r24	; 0x13
     efc:	8b 89       	ldd	r24, Y+19	; 0x13
     efe:	9c 89       	ldd	r25, Y+20	; 0x14
     f00:	98 8b       	std	Y+16, r25	; 0x10
     f02:	8f 87       	std	Y+15, r24	; 0x0f
     f04:	8f 85       	ldd	r24, Y+15	; 0x0f
     f06:	98 89       	ldd	r25, Y+16	; 0x10
     f08:	01 97       	sbiw	r24, 0x01	; 1
     f0a:	f1 f7       	brne	.-4      	; 0xf08 <do_work+0x198>
     f0c:	98 8b       	std	Y+16, r25	; 0x10
     f0e:	8f 87       	std	Y+15, r24	; 0x0f
     f10:	84 eb       	ldi	r24, 0xB4	; 180
     f12:	0e 94 4a 01 	call	0x294	; 0x294 <servo_2>
     f16:	e6 ec       	ldi	r30, 0xC6	; 198
     f18:	f0 e0       	ldi	r31, 0x00	; 0
     f1a:	81 e0       	ldi	r24, 0x01	; 1
     f1c:	80 83       	st	Z, r24
     f1e:	80 e0       	ldi	r24, 0x00	; 0
     f20:	90 e4       	ldi	r25, 0x40	; 64
     f22:	ac e9       	ldi	r26, 0x9C	; 156
     f24:	b6 e4       	ldi	r27, 0x46	; 70
     f26:	8b 87       	std	Y+11, r24	; 0x0b
     f28:	9c 87       	std	Y+12, r25	; 0x0c
     f2a:	ad 87       	std	Y+13, r26	; 0x0d
     f2c:	be 87       	std	Y+14, r27	; 0x0e
     f2e:	2d ec       	ldi	r18, 0xCD	; 205
     f30:	3c ec       	ldi	r19, 0xCC	; 204
     f32:	4c e2       	ldi	r20, 0x2C	; 44
     f34:	55 e4       	ldi	r21, 0x45	; 69
     f36:	6b 85       	ldd	r22, Y+11	; 0x0b
     f38:	7c 85       	ldd	r23, Y+12	; 0x0c
     f3a:	8d 85       	ldd	r24, Y+13	; 0x0d
     f3c:	9e 85       	ldd	r25, Y+14	; 0x0e
     f3e:	0e 94 67 0f 	call	0x1ece	; 0x1ece <__mulsf3>
     f42:	dc 01       	movw	r26, r24
     f44:	cb 01       	movw	r24, r22
     f46:	8f 83       	std	Y+7, r24	; 0x07
     f48:	98 87       	std	Y+8, r25	; 0x08
     f4a:	a9 87       	std	Y+9, r26	; 0x09
     f4c:	ba 87       	std	Y+10, r27	; 0x0a
     f4e:	20 e0       	ldi	r18, 0x00	; 0
     f50:	30 e0       	ldi	r19, 0x00	; 0
     f52:	40 e8       	ldi	r20, 0x80	; 128
     f54:	5f e3       	ldi	r21, 0x3F	; 63
     f56:	6f 81       	ldd	r22, Y+7	; 0x07
     f58:	78 85       	ldd	r23, Y+8	; 0x08
     f5a:	89 85       	ldd	r24, Y+9	; 0x09
     f5c:	9a 85       	ldd	r25, Y+10	; 0x0a
     f5e:	0e 94 87 11 	call	0x230e	; 0x230e <__ltsf2>
     f62:	88 23       	and	r24, r24
     f64:	0c f0       	brlt	.+2      	; 0xf68 <do_work+0x1f8>
     f66:	05 c0       	rjmp	.+10     	; 0xf72 <do_work+0x202>
     f68:	81 e0       	ldi	r24, 0x01	; 1
     f6a:	90 e0       	ldi	r25, 0x00	; 0
     f6c:	9e 83       	std	Y+6, r25	; 0x06
     f6e:	8d 83       	std	Y+5, r24	; 0x05
     f70:	40 c0       	rjmp	.+128    	; 0xff2 <do_work+0x282>
     f72:	20 e0       	ldi	r18, 0x00	; 0
     f74:	3f ef       	ldi	r19, 0xFF	; 255
     f76:	4f e7       	ldi	r20, 0x7F	; 127
     f78:	57 e4       	ldi	r21, 0x47	; 71
     f7a:	6f 81       	ldd	r22, Y+7	; 0x07
     f7c:	78 85       	ldd	r23, Y+8	; 0x08
     f7e:	89 85       	ldd	r24, Y+9	; 0x09
     f80:	9a 85       	ldd	r25, Y+10	; 0x0a
     f82:	0e 94 1b 11 	call	0x2236	; 0x2236 <__gtsf2>
     f86:	18 16       	cp	r1, r24
     f88:	0c f0       	brlt	.+2      	; 0xf8c <do_work+0x21c>
     f8a:	29 c0       	rjmp	.+82     	; 0xfde <do_work+0x26e>
     f8c:	20 e0       	ldi	r18, 0x00	; 0
     f8e:	30 e0       	ldi	r19, 0x00	; 0
     f90:	40 e2       	ldi	r20, 0x20	; 32
     f92:	51 e4       	ldi	r21, 0x41	; 65
     f94:	6b 85       	ldd	r22, Y+11	; 0x0b
     f96:	7c 85       	ldd	r23, Y+12	; 0x0c
     f98:	8d 85       	ldd	r24, Y+13	; 0x0d
     f9a:	9e 85       	ldd	r25, Y+14	; 0x0e
     f9c:	0e 94 67 0f 	call	0x1ece	; 0x1ece <__mulsf3>
     fa0:	dc 01       	movw	r26, r24
     fa2:	cb 01       	movw	r24, r22
     fa4:	bc 01       	movw	r22, r24
     fa6:	cd 01       	movw	r24, r26
     fa8:	0e 94 9d 0d 	call	0x1b3a	; 0x1b3a <__fixunssfsi>
     fac:	dc 01       	movw	r26, r24
     fae:	cb 01       	movw	r24, r22
     fb0:	9e 83       	std	Y+6, r25	; 0x06
     fb2:	8d 83       	std	Y+5, r24	; 0x05
     fb4:	0f c0       	rjmp	.+30     	; 0xfd4 <do_work+0x264>
     fb6:	84 e1       	ldi	r24, 0x14	; 20
     fb8:	91 e0       	ldi	r25, 0x01	; 1
     fba:	9c 83       	std	Y+4, r25	; 0x04
     fbc:	8b 83       	std	Y+3, r24	; 0x03
     fbe:	8b 81       	ldd	r24, Y+3	; 0x03
     fc0:	9c 81       	ldd	r25, Y+4	; 0x04
     fc2:	01 97       	sbiw	r24, 0x01	; 1
     fc4:	f1 f7       	brne	.-4      	; 0xfc2 <do_work+0x252>
     fc6:	9c 83       	std	Y+4, r25	; 0x04
     fc8:	8b 83       	std	Y+3, r24	; 0x03
     fca:	8d 81       	ldd	r24, Y+5	; 0x05
     fcc:	9e 81       	ldd	r25, Y+6	; 0x06
     fce:	01 97       	sbiw	r24, 0x01	; 1
     fd0:	9e 83       	std	Y+6, r25	; 0x06
     fd2:	8d 83       	std	Y+5, r24	; 0x05
     fd4:	8d 81       	ldd	r24, Y+5	; 0x05
     fd6:	9e 81       	ldd	r25, Y+6	; 0x06
     fd8:	00 97       	sbiw	r24, 0x00	; 0
     fda:	69 f7       	brne	.-38     	; 0xfb6 <do_work+0x246>
     fdc:	14 c0       	rjmp	.+40     	; 0x1006 <do_work+0x296>
     fde:	6f 81       	ldd	r22, Y+7	; 0x07
     fe0:	78 85       	ldd	r23, Y+8	; 0x08
     fe2:	89 85       	ldd	r24, Y+9	; 0x09
     fe4:	9a 85       	ldd	r25, Y+10	; 0x0a
     fe6:	0e 94 9d 0d 	call	0x1b3a	; 0x1b3a <__fixunssfsi>
     fea:	dc 01       	movw	r26, r24
     fec:	cb 01       	movw	r24, r22
     fee:	9e 83       	std	Y+6, r25	; 0x06
     ff0:	8d 83       	std	Y+5, r24	; 0x05
     ff2:	8d 81       	ldd	r24, Y+5	; 0x05
     ff4:	9e 81       	ldd	r25, Y+6	; 0x06
     ff6:	9a 83       	std	Y+2, r25	; 0x02
     ff8:	89 83       	std	Y+1, r24	; 0x01
     ffa:	89 81       	ldd	r24, Y+1	; 0x01
     ffc:	9a 81       	ldd	r25, Y+2	; 0x02
     ffe:	01 97       	sbiw	r24, 0x01	; 1
    1000:	f1 f7       	brne	.-4      	; 0xffe <do_work+0x28e>
    1002:	9a 83       	std	Y+2, r25	; 0x02
    1004:	89 83       	std	Y+1, r24	; 0x01
    1006:	10 92 0c 03 	sts	0x030C, r1
    100a:	10 92 0d 03 	sts	0x030D, r1
    100e:	10 92 0e 03 	sts	0x030E, r1
    1012:	10 92 0f 03 	sts	0x030F, r1
    1016:	45 c0       	rjmp	.+138    	; 0x10a2 <do_work+0x332>
    1018:	80 91 14 03 	lds	r24, 0x0314
    101c:	89 35       	cpi	r24, 0x59	; 89
    101e:	48 f0       	brcs	.+18     	; 0x1032 <do_work+0x2c2>
    1020:	81 e0       	ldi	r24, 0x01	; 1
    1022:	80 93 12 03 	sts	0x0312, r24
    1026:	0e 94 0a 03 	call	0x614	; 0x614 <forward>
    102a:	66 e9       	ldi	r22, 0x96	; 150
    102c:	86 e9       	ldi	r24, 0x96	; 150
    102e:	0e 94 18 06 	call	0xc30	; 0xc30 <velocity>
    1032:	80 91 13 03 	lds	r24, 0x0313
    1036:	88 35       	cpi	r24, 0x58	; 88
    1038:	68 f4       	brcc	.+26     	; 0x1054 <do_work+0x2e4>
    103a:	80 91 12 03 	lds	r24, 0x0312
    103e:	88 23       	and	r24, r24
    1040:	49 f4       	brne	.+18     	; 0x1054 <do_work+0x2e4>
    1042:	81 e0       	ldi	r24, 0x01	; 1
    1044:	80 93 12 03 	sts	0x0312, r24
    1048:	0e 94 0a 03 	call	0x614	; 0x614 <forward>
    104c:	62 e3       	ldi	r22, 0x32	; 50
    104e:	82 e8       	ldi	r24, 0x82	; 130
    1050:	0e 94 18 06 	call	0xc30	; 0xc30 <velocity>
    1054:	80 91 15 03 	lds	r24, 0x0315
    1058:	88 35       	cpi	r24, 0x58	; 88
    105a:	68 f4       	brcc	.+26     	; 0x1076 <do_work+0x306>
    105c:	80 91 12 03 	lds	r24, 0x0312
    1060:	88 23       	and	r24, r24
    1062:	49 f4       	brne	.+18     	; 0x1076 <do_work+0x306>
    1064:	81 e0       	ldi	r24, 0x01	; 1
    1066:	80 93 12 03 	sts	0x0312, r24
    106a:	0e 94 0a 03 	call	0x614	; 0x614 <forward>
    106e:	62 e8       	ldi	r22, 0x82	; 130
    1070:	82 e3       	ldi	r24, 0x32	; 50
    1072:	0e 94 18 06 	call	0xc30	; 0xc30 <velocity>
    1076:	80 91 14 03 	lds	r24, 0x0314
    107a:	88 35       	cpi	r24, 0x58	; 88
    107c:	08 f0       	brcs	.+2      	; 0x1080 <do_work+0x310>
    107e:	ac ce       	rjmp	.-680    	; 0xdd8 <do_work+0x68>
    1080:	80 91 13 03 	lds	r24, 0x0313
    1084:	88 35       	cpi	r24, 0x58	; 88
    1086:	08 f0       	brcs	.+2      	; 0x108a <do_work+0x31a>
    1088:	a7 ce       	rjmp	.-690    	; 0xdd8 <do_work+0x68>
    108a:	80 91 15 03 	lds	r24, 0x0315
    108e:	88 35       	cpi	r24, 0x58	; 88
    1090:	08 f0       	brcs	.+2      	; 0x1094 <do_work+0x324>
    1092:	a2 ce       	rjmp	.-700    	; 0xdd8 <do_work+0x68>
    1094:	0e 94 0a 03 	call	0x614	; 0x614 <forward>
    1098:	60 e0       	ldi	r22, 0x00	; 0
    109a:	80 e0       	ldi	r24, 0x00	; 0
    109c:	0e 94 18 06 	call	0xc30	; 0xc30 <velocity>
    10a0:	9b ce       	rjmp	.-714    	; 0xdd8 <do_work+0x68>
    10a2:	a4 96       	adiw	r28, 0x24	; 36
    10a4:	0f b6       	in	r0, 0x3f	; 63
    10a6:	f8 94       	cli
    10a8:	de bf       	out	0x3e, r29	; 62
    10aa:	0f be       	out	0x3f, r0	; 63
    10ac:	cd bf       	out	0x3d, r28	; 61
    10ae:	df 91       	pop	r29
    10b0:	cf 91       	pop	r28
    10b2:	08 95       	ret

000010b4 <move_till_junction>:
    10b4:	cf 93       	push	r28
    10b6:	df 93       	push	r29
    10b8:	cd b7       	in	r28, 0x3d	; 61
    10ba:	de b7       	in	r29, 0x3e	; 62
    10bc:	66 97       	sbiw	r28, 0x16	; 22
    10be:	0f b6       	in	r0, 0x3f	; 63
    10c0:	f8 94       	cli
    10c2:	de bf       	out	0x3e, r29	; 62
    10c4:	0f be       	out	0x3f, r0	; 63
    10c6:	cd bf       	out	0x3d, r28	; 61
    10c8:	0e 94 79 0d 	call	0x1af2	; 0x1af2 <init_devices>
    10cc:	80 e0       	ldi	r24, 0x00	; 0
    10ce:	90 e0       	ldi	r25, 0x00	; 0
    10d0:	a0 e0       	ldi	r26, 0x00	; 0
    10d2:	b0 e0       	ldi	r27, 0x00	; 0
    10d4:	8b 8b       	std	Y+19, r24	; 0x13
    10d6:	9c 8b       	std	Y+20, r25	; 0x14
    10d8:	ad 8b       	std	Y+21, r26	; 0x15
    10da:	be 8b       	std	Y+22, r27	; 0x16
    10dc:	1f 86       	std	Y+15, r1	; 0x0f
    10de:	18 8a       	std	Y+16, r1	; 0x10
    10e0:	19 8a       	std	Y+17, r1	; 0x11
    10e2:	1a 8a       	std	Y+18, r1	; 0x12
    10e4:	8e e6       	ldi	r24, 0x6E	; 110
    10e6:	9e ed       	ldi	r25, 0xDE	; 222
    10e8:	a5 e9       	ldi	r26, 0x95	; 149
    10ea:	b1 e4       	ldi	r27, 0x41	; 65
    10ec:	8b 8b       	std	Y+19, r24	; 0x13
    10ee:	9c 8b       	std	Y+20, r25	; 0x14
    10f0:	ad 8b       	std	Y+21, r26	; 0x15
    10f2:	be 8b       	std	Y+22, r27	; 0x16
    10f4:	6b 89       	ldd	r22, Y+19	; 0x13
    10f6:	7c 89       	ldd	r23, Y+20	; 0x14
    10f8:	8d 89       	ldd	r24, Y+21	; 0x15
    10fa:	9e 89       	ldd	r25, Y+22	; 0x16
    10fc:	0e 94 9d 0d 	call	0x1b3a	; 0x1b3a <__fixunssfsi>
    1100:	dc 01       	movw	r26, r24
    1102:	cb 01       	movw	r24, r22
    1104:	8f 87       	std	Y+15, r24	; 0x0f
    1106:	98 8b       	std	Y+16, r25	; 0x10
    1108:	a9 8b       	std	Y+17, r26	; 0x11
    110a:	ba 8b       	std	Y+18, r27	; 0x12
    110c:	10 92 0c 03 	sts	0x030C, r1
    1110:	10 92 0d 03 	sts	0x030D, r1
    1114:	10 92 0e 03 	sts	0x030E, r1
    1118:	10 92 0f 03 	sts	0x030F, r1
    111c:	83 e0       	ldi	r24, 0x03	; 3
    111e:	0e 94 b9 05 	call	0xb72	; 0xb72 <ADC_Conversion>
    1122:	80 93 13 03 	sts	0x0313, r24
    1126:	82 e0       	ldi	r24, 0x02	; 2
    1128:	0e 94 b9 05 	call	0xb72	; 0xb72 <ADC_Conversion>
    112c:	80 93 14 03 	sts	0x0314, r24
    1130:	81 e0       	ldi	r24, 0x01	; 1
    1132:	0e 94 b9 05 	call	0xb72	; 0xb72 <ADC_Conversion>
    1136:	80 93 15 03 	sts	0x0315, r24
    113a:	10 92 12 03 	sts	0x0312, r1
    113e:	20 91 0c 03 	lds	r18, 0x030C
    1142:	30 91 0d 03 	lds	r19, 0x030D
    1146:	40 91 0e 03 	lds	r20, 0x030E
    114a:	50 91 0f 03 	lds	r21, 0x030F
    114e:	8f 85       	ldd	r24, Y+15	; 0x0f
    1150:	98 89       	ldd	r25, Y+16	; 0x10
    1152:	a9 89       	ldd	r26, Y+17	; 0x11
    1154:	ba 89       	ldd	r27, Y+18	; 0x12
    1156:	82 17       	cp	r24, r18
    1158:	93 07       	cpc	r25, r19
    115a:	a4 07       	cpc	r26, r20
    115c:	b5 07       	cpc	r27, r21
    115e:	08 f0       	brcs	.+2      	; 0x1162 <move_till_junction+0xae>
    1160:	83 c0       	rjmp	.+262    	; 0x1268 <move_till_junction+0x1b4>
    1162:	0e 94 62 03 	call	0x6c4	; 0x6c4 <stop>
    1166:	e6 ec       	ldi	r30, 0xC6	; 198
    1168:	f0 e0       	ldi	r31, 0x00	; 0
    116a:	81 e0       	ldi	r24, 0x01	; 1
    116c:	80 83       	st	Z, r24
    116e:	80 e0       	ldi	r24, 0x00	; 0
    1170:	90 e0       	ldi	r25, 0x00	; 0
    1172:	aa ef       	ldi	r26, 0xFA	; 250
    1174:	b4 e4       	ldi	r27, 0x44	; 68
    1176:	8b 87       	std	Y+11, r24	; 0x0b
    1178:	9c 87       	std	Y+12, r25	; 0x0c
    117a:	ad 87       	std	Y+13, r26	; 0x0d
    117c:	be 87       	std	Y+14, r27	; 0x0e
    117e:	2d ec       	ldi	r18, 0xCD	; 205
    1180:	3c ec       	ldi	r19, 0xCC	; 204
    1182:	4c e2       	ldi	r20, 0x2C	; 44
    1184:	55 e4       	ldi	r21, 0x45	; 69
    1186:	6b 85       	ldd	r22, Y+11	; 0x0b
    1188:	7c 85       	ldd	r23, Y+12	; 0x0c
    118a:	8d 85       	ldd	r24, Y+13	; 0x0d
    118c:	9e 85       	ldd	r25, Y+14	; 0x0e
    118e:	0e 94 67 0f 	call	0x1ece	; 0x1ece <__mulsf3>
    1192:	dc 01       	movw	r26, r24
    1194:	cb 01       	movw	r24, r22
    1196:	8f 83       	std	Y+7, r24	; 0x07
    1198:	98 87       	std	Y+8, r25	; 0x08
    119a:	a9 87       	std	Y+9, r26	; 0x09
    119c:	ba 87       	std	Y+10, r27	; 0x0a
    119e:	20 e0       	ldi	r18, 0x00	; 0
    11a0:	30 e0       	ldi	r19, 0x00	; 0
    11a2:	40 e8       	ldi	r20, 0x80	; 128
    11a4:	5f e3       	ldi	r21, 0x3F	; 63
    11a6:	6f 81       	ldd	r22, Y+7	; 0x07
    11a8:	78 85       	ldd	r23, Y+8	; 0x08
    11aa:	89 85       	ldd	r24, Y+9	; 0x09
    11ac:	9a 85       	ldd	r25, Y+10	; 0x0a
    11ae:	0e 94 87 11 	call	0x230e	; 0x230e <__ltsf2>
    11b2:	88 23       	and	r24, r24
    11b4:	0c f0       	brlt	.+2      	; 0x11b8 <move_till_junction+0x104>
    11b6:	05 c0       	rjmp	.+10     	; 0x11c2 <move_till_junction+0x10e>
    11b8:	81 e0       	ldi	r24, 0x01	; 1
    11ba:	90 e0       	ldi	r25, 0x00	; 0
    11bc:	9e 83       	std	Y+6, r25	; 0x06
    11be:	8d 83       	std	Y+5, r24	; 0x05
    11c0:	40 c0       	rjmp	.+128    	; 0x1242 <move_till_junction+0x18e>
    11c2:	20 e0       	ldi	r18, 0x00	; 0
    11c4:	3f ef       	ldi	r19, 0xFF	; 255
    11c6:	4f e7       	ldi	r20, 0x7F	; 127
    11c8:	57 e4       	ldi	r21, 0x47	; 71
    11ca:	6f 81       	ldd	r22, Y+7	; 0x07
    11cc:	78 85       	ldd	r23, Y+8	; 0x08
    11ce:	89 85       	ldd	r24, Y+9	; 0x09
    11d0:	9a 85       	ldd	r25, Y+10	; 0x0a
    11d2:	0e 94 1b 11 	call	0x2236	; 0x2236 <__gtsf2>
    11d6:	18 16       	cp	r1, r24
    11d8:	0c f0       	brlt	.+2      	; 0x11dc <move_till_junction+0x128>
    11da:	29 c0       	rjmp	.+82     	; 0x122e <move_till_junction+0x17a>
    11dc:	20 e0       	ldi	r18, 0x00	; 0
    11de:	30 e0       	ldi	r19, 0x00	; 0
    11e0:	40 e2       	ldi	r20, 0x20	; 32
    11e2:	51 e4       	ldi	r21, 0x41	; 65
    11e4:	6b 85       	ldd	r22, Y+11	; 0x0b
    11e6:	7c 85       	ldd	r23, Y+12	; 0x0c
    11e8:	8d 85       	ldd	r24, Y+13	; 0x0d
    11ea:	9e 85       	ldd	r25, Y+14	; 0x0e
    11ec:	0e 94 67 0f 	call	0x1ece	; 0x1ece <__mulsf3>
    11f0:	dc 01       	movw	r26, r24
    11f2:	cb 01       	movw	r24, r22
    11f4:	bc 01       	movw	r22, r24
    11f6:	cd 01       	movw	r24, r26
    11f8:	0e 94 9d 0d 	call	0x1b3a	; 0x1b3a <__fixunssfsi>
    11fc:	dc 01       	movw	r26, r24
    11fe:	cb 01       	movw	r24, r22
    1200:	9e 83       	std	Y+6, r25	; 0x06
    1202:	8d 83       	std	Y+5, r24	; 0x05
    1204:	0f c0       	rjmp	.+30     	; 0x1224 <move_till_junction+0x170>
    1206:	84 e1       	ldi	r24, 0x14	; 20
    1208:	91 e0       	ldi	r25, 0x01	; 1
    120a:	9c 83       	std	Y+4, r25	; 0x04
    120c:	8b 83       	std	Y+3, r24	; 0x03
    120e:	8b 81       	ldd	r24, Y+3	; 0x03
    1210:	9c 81       	ldd	r25, Y+4	; 0x04
    1212:	01 97       	sbiw	r24, 0x01	; 1
    1214:	f1 f7       	brne	.-4      	; 0x1212 <move_till_junction+0x15e>
    1216:	9c 83       	std	Y+4, r25	; 0x04
    1218:	8b 83       	std	Y+3, r24	; 0x03
    121a:	8d 81       	ldd	r24, Y+5	; 0x05
    121c:	9e 81       	ldd	r25, Y+6	; 0x06
    121e:	01 97       	sbiw	r24, 0x01	; 1
    1220:	9e 83       	std	Y+6, r25	; 0x06
    1222:	8d 83       	std	Y+5, r24	; 0x05
    1224:	8d 81       	ldd	r24, Y+5	; 0x05
    1226:	9e 81       	ldd	r25, Y+6	; 0x06
    1228:	00 97       	sbiw	r24, 0x00	; 0
    122a:	69 f7       	brne	.-38     	; 0x1206 <move_till_junction+0x152>
    122c:	14 c0       	rjmp	.+40     	; 0x1256 <move_till_junction+0x1a2>
    122e:	6f 81       	ldd	r22, Y+7	; 0x07
    1230:	78 85       	ldd	r23, Y+8	; 0x08
    1232:	89 85       	ldd	r24, Y+9	; 0x09
    1234:	9a 85       	ldd	r25, Y+10	; 0x0a
    1236:	0e 94 9d 0d 	call	0x1b3a	; 0x1b3a <__fixunssfsi>
    123a:	dc 01       	movw	r26, r24
    123c:	cb 01       	movw	r24, r22
    123e:	9e 83       	std	Y+6, r25	; 0x06
    1240:	8d 83       	std	Y+5, r24	; 0x05
    1242:	8d 81       	ldd	r24, Y+5	; 0x05
    1244:	9e 81       	ldd	r25, Y+6	; 0x06
    1246:	9a 83       	std	Y+2, r25	; 0x02
    1248:	89 83       	std	Y+1, r24	; 0x01
    124a:	89 81       	ldd	r24, Y+1	; 0x01
    124c:	9a 81       	ldd	r25, Y+2	; 0x02
    124e:	01 97       	sbiw	r24, 0x01	; 1
    1250:	f1 f7       	brne	.-4      	; 0x124e <move_till_junction+0x19a>
    1252:	9a 83       	std	Y+2, r25	; 0x02
    1254:	89 83       	std	Y+1, r24	; 0x01
    1256:	10 92 0c 03 	sts	0x030C, r1
    125a:	10 92 0d 03 	sts	0x030D, r1
    125e:	10 92 0e 03 	sts	0x030E, r1
    1262:	10 92 0f 03 	sts	0x030F, r1
    1266:	45 c0       	rjmp	.+138    	; 0x12f2 <move_till_junction+0x23e>
    1268:	80 91 14 03 	lds	r24, 0x0314
    126c:	89 35       	cpi	r24, 0x59	; 89
    126e:	48 f0       	brcs	.+18     	; 0x1282 <move_till_junction+0x1ce>
    1270:	81 e0       	ldi	r24, 0x01	; 1
    1272:	80 93 12 03 	sts	0x0312, r24
    1276:	0e 94 0a 03 	call	0x614	; 0x614 <forward>
    127a:	66 e9       	ldi	r22, 0x96	; 150
    127c:	86 e9       	ldi	r24, 0x96	; 150
    127e:	0e 94 18 06 	call	0xc30	; 0xc30 <velocity>
    1282:	80 91 13 03 	lds	r24, 0x0313
    1286:	88 35       	cpi	r24, 0x58	; 88
    1288:	68 f4       	brcc	.+26     	; 0x12a4 <move_till_junction+0x1f0>
    128a:	80 91 12 03 	lds	r24, 0x0312
    128e:	88 23       	and	r24, r24
    1290:	49 f4       	brne	.+18     	; 0x12a4 <move_till_junction+0x1f0>
    1292:	81 e0       	ldi	r24, 0x01	; 1
    1294:	80 93 12 03 	sts	0x0312, r24
    1298:	0e 94 0a 03 	call	0x614	; 0x614 <forward>
    129c:	62 e3       	ldi	r22, 0x32	; 50
    129e:	82 e8       	ldi	r24, 0x82	; 130
    12a0:	0e 94 18 06 	call	0xc30	; 0xc30 <velocity>
    12a4:	80 91 15 03 	lds	r24, 0x0315
    12a8:	88 35       	cpi	r24, 0x58	; 88
    12aa:	68 f4       	brcc	.+26     	; 0x12c6 <move_till_junction+0x212>
    12ac:	80 91 12 03 	lds	r24, 0x0312
    12b0:	88 23       	and	r24, r24
    12b2:	49 f4       	brne	.+18     	; 0x12c6 <move_till_junction+0x212>
    12b4:	81 e0       	ldi	r24, 0x01	; 1
    12b6:	80 93 12 03 	sts	0x0312, r24
    12ba:	0e 94 0a 03 	call	0x614	; 0x614 <forward>
    12be:	62 e8       	ldi	r22, 0x82	; 130
    12c0:	82 e3       	ldi	r24, 0x32	; 50
    12c2:	0e 94 18 06 	call	0xc30	; 0xc30 <velocity>
    12c6:	80 91 14 03 	lds	r24, 0x0314
    12ca:	88 35       	cpi	r24, 0x58	; 88
    12cc:	08 f0       	brcs	.+2      	; 0x12d0 <move_till_junction+0x21c>
    12ce:	26 cf       	rjmp	.-436    	; 0x111c <move_till_junction+0x68>
    12d0:	80 91 13 03 	lds	r24, 0x0313
    12d4:	88 35       	cpi	r24, 0x58	; 88
    12d6:	08 f0       	brcs	.+2      	; 0x12da <move_till_junction+0x226>
    12d8:	21 cf       	rjmp	.-446    	; 0x111c <move_till_junction+0x68>
    12da:	80 91 15 03 	lds	r24, 0x0315
    12de:	88 35       	cpi	r24, 0x58	; 88
    12e0:	08 f0       	brcs	.+2      	; 0x12e4 <move_till_junction+0x230>
    12e2:	1c cf       	rjmp	.-456    	; 0x111c <move_till_junction+0x68>
    12e4:	0e 94 0a 03 	call	0x614	; 0x614 <forward>
    12e8:	60 e0       	ldi	r22, 0x00	; 0
    12ea:	80 e0       	ldi	r24, 0x00	; 0
    12ec:	0e 94 18 06 	call	0xc30	; 0xc30 <velocity>
    12f0:	15 cf       	rjmp	.-470    	; 0x111c <move_till_junction+0x68>
    12f2:	66 96       	adiw	r28, 0x16	; 22
    12f4:	0f b6       	in	r0, 0x3f	; 63
    12f6:	f8 94       	cli
    12f8:	de bf       	out	0x3e, r29	; 62
    12fa:	0f be       	out	0x3f, r0	; 63
    12fc:	cd bf       	out	0x3d, r28	; 61
    12fe:	df 91       	pop	r29
    1300:	cf 91       	pop	r28
    1302:	08 95       	ret

00001304 <reach_dest>:
    1304:	cf 93       	push	r28
    1306:	df 93       	push	r29
    1308:	cd b7       	in	r28, 0x3d	; 61
    130a:	de b7       	in	r29, 0x3e	; 62
    130c:	2c 97       	sbiw	r28, 0x0c	; 12
    130e:	0f b6       	in	r0, 0x3f	; 63
    1310:	f8 94       	cli
    1312:	de bf       	out	0x3e, r29	; 62
    1314:	0f be       	out	0x3f, r0	; 63
    1316:	cd bf       	out	0x3d, r28	; 61
    1318:	9a 87       	std	Y+10, r25	; 0x0a
    131a:	89 87       	std	Y+9, r24	; 0x09
    131c:	7c 87       	std	Y+12, r23	; 0x0c
    131e:	6b 87       	std	Y+11, r22	; 0x0b
    1320:	89 85       	ldd	r24, Y+9	; 0x09
    1322:	9a 85       	ldd	r25, Y+10	; 0x0a
    1324:	98 87       	std	Y+8, r25	; 0x08
    1326:	8f 83       	std	Y+7, r24	; 0x07
    1328:	8b 85       	ldd	r24, Y+11	; 0x0b
    132a:	9c 85       	ldd	r25, Y+12	; 0x0c
    132c:	9e 83       	std	Y+6, r25	; 0x06
    132e:	8d 83       	std	Y+5, r24	; 0x05
    1330:	1c 82       	std	Y+4, r1	; 0x04
    1332:	1b 82       	std	Y+3, r1	; 0x03
    1334:	1a 82       	std	Y+2, r1	; 0x02
    1336:	19 82       	std	Y+1, r1	; 0x01
    1338:	07 c0       	rjmp	.+14     	; 0x1348 <reach_dest+0x44>
    133a:	0e 94 5a 08 	call	0x10b4	; 0x10b4 <move_till_junction>
    133e:	89 81       	ldd	r24, Y+1	; 0x01
    1340:	9a 81       	ldd	r25, Y+2	; 0x02
    1342:	01 96       	adiw	r24, 0x01	; 1
    1344:	9a 83       	std	Y+2, r25	; 0x02
    1346:	89 83       	std	Y+1, r24	; 0x01
    1348:	29 81       	ldd	r18, Y+1	; 0x01
    134a:	3a 81       	ldd	r19, Y+2	; 0x02
    134c:	8f 81       	ldd	r24, Y+7	; 0x07
    134e:	98 85       	ldd	r25, Y+8	; 0x08
    1350:	28 17       	cp	r18, r24
    1352:	39 07       	cpc	r19, r25
    1354:	94 f3       	brlt	.-28     	; 0x133a <reach_dest+0x36>
    1356:	8b 85       	ldd	r24, Y+11	; 0x0b
    1358:	9c 85       	ldd	r25, Y+12	; 0x0c
    135a:	18 16       	cp	r1, r24
    135c:	19 06       	cpc	r1, r25
    135e:	64 f4       	brge	.+24     	; 0x1378 <reach_dest+0x74>
    1360:	8a e5       	ldi	r24, 0x5A	; 90
    1362:	90 e0       	ldi	r25, 0x00	; 0
    1364:	0e 94 8e 04 	call	0x91c	; 0x91c <left_degrees>
    1368:	07 c0       	rjmp	.+14     	; 0x1378 <reach_dest+0x74>
    136a:	0e 94 5a 08 	call	0x10b4	; 0x10b4 <move_till_junction>
    136e:	8b 81       	ldd	r24, Y+3	; 0x03
    1370:	9c 81       	ldd	r25, Y+4	; 0x04
    1372:	01 96       	adiw	r24, 0x01	; 1
    1374:	9c 83       	std	Y+4, r25	; 0x04
    1376:	8b 83       	std	Y+3, r24	; 0x03
    1378:	2b 81       	ldd	r18, Y+3	; 0x03
    137a:	3c 81       	ldd	r19, Y+4	; 0x04
    137c:	8d 81       	ldd	r24, Y+5	; 0x05
    137e:	9e 81       	ldd	r25, Y+6	; 0x06
    1380:	28 17       	cp	r18, r24
    1382:	39 07       	cpc	r19, r25
    1384:	94 f3       	brlt	.-28     	; 0x136a <reach_dest+0x66>
    1386:	2c 96       	adiw	r28, 0x0c	; 12
    1388:	0f b6       	in	r0, 0x3f	; 63
    138a:	f8 94       	cli
    138c:	de bf       	out	0x3e, r29	; 62
    138e:	0f be       	out	0x3f, r0	; 63
    1390:	cd bf       	out	0x3d, r28	; 61
    1392:	df 91       	pop	r29
    1394:	cf 91       	pop	r28
    1396:	08 95       	ret

00001398 <drop_object>:
    1398:	cf 93       	push	r28
    139a:	df 93       	push	r29
    139c:	cd b7       	in	r28, 0x3d	; 61
    139e:	de b7       	in	r29, 0x3e	; 62
    13a0:	84 eb       	ldi	r24, 0xB4	; 180
    13a2:	0e 94 4a 01 	call	0x294	; 0x294 <servo_2>
    13a6:	df 91       	pop	r29
    13a8:	cf 91       	pop	r28
    13aa:	08 95       	ret

000013ac <__vector_25>:
    13ac:	1f 92       	push	r1
    13ae:	0f 92       	push	r0
    13b0:	0f b6       	in	r0, 0x3f	; 63
    13b2:	0f 92       	push	r0
    13b4:	11 24       	eor	r1, r1
    13b6:	0f 93       	push	r16
    13b8:	1f 93       	push	r17
    13ba:	2f 93       	push	r18
    13bc:	3f 93       	push	r19
    13be:	4f 93       	push	r20
    13c0:	5f 93       	push	r21
    13c2:	6f 93       	push	r22
    13c4:	7f 93       	push	r23
    13c6:	8f 93       	push	r24
    13c8:	9f 93       	push	r25
    13ca:	af 93       	push	r26
    13cc:	bf 93       	push	r27
    13ce:	ef 93       	push	r30
    13d0:	ff 93       	push	r31
    13d2:	cf 93       	push	r28
    13d4:	df 93       	push	r29
    13d6:	cd b7       	in	r28, 0x3d	; 61
    13d8:	de b7       	in	r29, 0x3e	; 62
    13da:	c6 54       	subi	r28, 0x46	; 70
    13dc:	d0 40       	sbci	r29, 0x00	; 0
    13de:	de bf       	out	0x3e, r29	; 62
    13e0:	cd bf       	out	0x3d, r28	; 61
    13e2:	e6 ec       	ldi	r30, 0xC6	; 198
    13e4:	f0 e0       	ldi	r31, 0x00	; 0
    13e6:	80 81       	ld	r24, Z
    13e8:	80 93 1f 03 	sts	0x031F, r24
    13ec:	e6 ec       	ldi	r30, 0xC6	; 198
    13ee:	f0 e0       	ldi	r31, 0x00	; 0
    13f0:	80 91 1f 03 	lds	r24, 0x031F
    13f4:	80 83       	st	Z, r24
    13f6:	80 91 1f 03 	lds	r24, 0x031F
    13fa:	88 33       	cpi	r24, 0x38	; 56
    13fc:	e9 f4       	brne	.+58     	; 0x1438 <__vector_25+0x8c>
    13fe:	80 91 1d 03 	lds	r24, 0x031D
    1402:	90 91 1e 03 	lds	r25, 0x031E
    1406:	00 97       	sbiw	r24, 0x00	; 0
    1408:	39 f4       	brne	.+14     	; 0x1418 <__vector_25+0x6c>
    140a:	88 e0       	ldi	r24, 0x08	; 8
    140c:	90 e0       	ldi	r25, 0x00	; 0
    140e:	90 93 1b 03 	sts	0x031B, r25
    1412:	80 93 1a 03 	sts	0x031A, r24
    1416:	0c c0       	rjmp	.+24     	; 0x1430 <__vector_25+0x84>
    1418:	88 e0       	ldi	r24, 0x08	; 8
    141a:	90 e0       	ldi	r25, 0x00	; 0
    141c:	90 93 19 03 	sts	0x0319, r25
    1420:	80 93 18 03 	sts	0x0318, r24
    1424:	81 e0       	ldi	r24, 0x01	; 1
    1426:	90 e0       	ldi	r25, 0x00	; 0
    1428:	90 93 1e 03 	sts	0x031E, r25
    142c:	80 93 1d 03 	sts	0x031D, r24
    1430:	e2 e2       	ldi	r30, 0x22	; 34
    1432:	f0 e0       	ldi	r31, 0x00	; 0
    1434:	85 e0       	ldi	r24, 0x05	; 5
    1436:	80 83       	st	Z, r24
    1438:	80 91 1f 03 	lds	r24, 0x031F
    143c:	82 33       	cpi	r24, 0x32	; 50
    143e:	e9 f4       	brne	.+58     	; 0x147a <__vector_25+0xce>
    1440:	80 91 1d 03 	lds	r24, 0x031D
    1444:	90 91 1e 03 	lds	r25, 0x031E
    1448:	00 97       	sbiw	r24, 0x00	; 0
    144a:	39 f4       	brne	.+14     	; 0x145a <__vector_25+0xae>
    144c:	82 e0       	ldi	r24, 0x02	; 2
    144e:	90 e0       	ldi	r25, 0x00	; 0
    1450:	90 93 1b 03 	sts	0x031B, r25
    1454:	80 93 1a 03 	sts	0x031A, r24
    1458:	0c c0       	rjmp	.+24     	; 0x1472 <__vector_25+0xc6>
    145a:	82 e0       	ldi	r24, 0x02	; 2
    145c:	90 e0       	ldi	r25, 0x00	; 0
    145e:	90 93 19 03 	sts	0x0319, r25
    1462:	80 93 18 03 	sts	0x0318, r24
    1466:	81 e0       	ldi	r24, 0x01	; 1
    1468:	90 e0       	ldi	r25, 0x00	; 0
    146a:	90 93 1e 03 	sts	0x031E, r25
    146e:	80 93 1d 03 	sts	0x031D, r24
    1472:	e2 e2       	ldi	r30, 0x22	; 34
    1474:	f0 e0       	ldi	r31, 0x00	; 0
    1476:	89 e0       	ldi	r24, 0x09	; 9
    1478:	80 83       	st	Z, r24
    147a:	80 91 1f 03 	lds	r24, 0x031F
    147e:	84 33       	cpi	r24, 0x34	; 52
    1480:	e9 f4       	brne	.+58     	; 0x14bc <__vector_25+0x110>
    1482:	80 91 1d 03 	lds	r24, 0x031D
    1486:	90 91 1e 03 	lds	r25, 0x031E
    148a:	00 97       	sbiw	r24, 0x00	; 0
    148c:	39 f4       	brne	.+14     	; 0x149c <__vector_25+0xf0>
    148e:	84 e0       	ldi	r24, 0x04	; 4
    1490:	90 e0       	ldi	r25, 0x00	; 0
    1492:	90 93 1b 03 	sts	0x031B, r25
    1496:	80 93 1a 03 	sts	0x031A, r24
    149a:	0c c0       	rjmp	.+24     	; 0x14b4 <__vector_25+0x108>
    149c:	84 e0       	ldi	r24, 0x04	; 4
    149e:	90 e0       	ldi	r25, 0x00	; 0
    14a0:	90 93 19 03 	sts	0x0319, r25
    14a4:	80 93 18 03 	sts	0x0318, r24
    14a8:	81 e0       	ldi	r24, 0x01	; 1
    14aa:	90 e0       	ldi	r25, 0x00	; 0
    14ac:	90 93 1e 03 	sts	0x031E, r25
    14b0:	80 93 1d 03 	sts	0x031D, r24
    14b4:	e2 e2       	ldi	r30, 0x22	; 34
    14b6:	f0 e0       	ldi	r31, 0x00	; 0
    14b8:	85 e0       	ldi	r24, 0x05	; 5
    14ba:	80 83       	st	Z, r24
    14bc:	80 91 1f 03 	lds	r24, 0x031F
    14c0:	86 33       	cpi	r24, 0x36	; 54
    14c2:	e9 f4       	brne	.+58     	; 0x14fe <__vector_25+0x152>
    14c4:	80 91 1d 03 	lds	r24, 0x031D
    14c8:	90 91 1e 03 	lds	r25, 0x031E
    14cc:	00 97       	sbiw	r24, 0x00	; 0
    14ce:	39 f4       	brne	.+14     	; 0x14de <__vector_25+0x132>
    14d0:	86 e0       	ldi	r24, 0x06	; 6
    14d2:	90 e0       	ldi	r25, 0x00	; 0
    14d4:	90 93 1b 03 	sts	0x031B, r25
    14d8:	80 93 1a 03 	sts	0x031A, r24
    14dc:	0c c0       	rjmp	.+24     	; 0x14f6 <__vector_25+0x14a>
    14de:	86 e0       	ldi	r24, 0x06	; 6
    14e0:	90 e0       	ldi	r25, 0x00	; 0
    14e2:	90 93 19 03 	sts	0x0319, r25
    14e6:	80 93 18 03 	sts	0x0318, r24
    14ea:	81 e0       	ldi	r24, 0x01	; 1
    14ec:	90 e0       	ldi	r25, 0x00	; 0
    14ee:	90 93 1e 03 	sts	0x031E, r25
    14f2:	80 93 1d 03 	sts	0x031D, r24
    14f6:	e2 e2       	ldi	r30, 0x22	; 34
    14f8:	f0 e0       	ldi	r31, 0x00	; 0
    14fa:	8a e0       	ldi	r24, 0x0A	; 10
    14fc:	80 83       	st	Z, r24
    14fe:	80 91 1f 03 	lds	r24, 0x031F
    1502:	85 33       	cpi	r24, 0x35	; 53
    1504:	e1 f4       	brne	.+56     	; 0x153e <__vector_25+0x192>
    1506:	80 91 1d 03 	lds	r24, 0x031D
    150a:	90 91 1e 03 	lds	r25, 0x031E
    150e:	00 97       	sbiw	r24, 0x00	; 0
    1510:	39 f4       	brne	.+14     	; 0x1520 <__vector_25+0x174>
    1512:	85 e0       	ldi	r24, 0x05	; 5
    1514:	90 e0       	ldi	r25, 0x00	; 0
    1516:	90 93 1b 03 	sts	0x031B, r25
    151a:	80 93 1a 03 	sts	0x031A, r24
    151e:	0c c0       	rjmp	.+24     	; 0x1538 <__vector_25+0x18c>
    1520:	85 e0       	ldi	r24, 0x05	; 5
    1522:	90 e0       	ldi	r25, 0x00	; 0
    1524:	90 93 19 03 	sts	0x0319, r25
    1528:	80 93 18 03 	sts	0x0318, r24
    152c:	81 e0       	ldi	r24, 0x01	; 1
    152e:	90 e0       	ldi	r25, 0x00	; 0
    1530:	90 93 1e 03 	sts	0x031E, r25
    1534:	80 93 1d 03 	sts	0x031D, r24
    1538:	e2 e2       	ldi	r30, 0x22	; 34
    153a:	f0 e0       	ldi	r31, 0x00	; 0
    153c:	10 82       	st	Z, r1
    153e:	80 91 1f 03 	lds	r24, 0x031F
    1542:	82 37       	cpi	r24, 0x72	; 114
    1544:	21 f4       	brne	.+8      	; 0x154e <__vector_25+0x1a2>
    1546:	e2 e2       	ldi	r30, 0x22	; 34
    1548:	f0 e0       	ldi	r31, 0x00	; 0
    154a:	86 e0       	ldi	r24, 0x06	; 6
    154c:	80 83       	st	Z, r24
    154e:	80 91 1f 03 	lds	r24, 0x031F
    1552:	87 33       	cpi	r24, 0x37	; 55
    1554:	d9 f4       	brne	.+54     	; 0x158c <__vector_25+0x1e0>
    1556:	80 91 1d 03 	lds	r24, 0x031D
    155a:	90 91 1e 03 	lds	r25, 0x031E
    155e:	00 97       	sbiw	r24, 0x00	; 0
    1560:	39 f4       	brne	.+14     	; 0x1570 <__vector_25+0x1c4>
    1562:	87 e0       	ldi	r24, 0x07	; 7
    1564:	90 e0       	ldi	r25, 0x00	; 0
    1566:	90 93 1b 03 	sts	0x031B, r25
    156a:	80 93 1a 03 	sts	0x031A, r24
    156e:	0c c0       	rjmp	.+24     	; 0x1588 <__vector_25+0x1dc>
    1570:	87 e0       	ldi	r24, 0x07	; 7
    1572:	90 e0       	ldi	r25, 0x00	; 0
    1574:	90 93 19 03 	sts	0x0319, r25
    1578:	80 93 18 03 	sts	0x0318, r24
    157c:	81 e0       	ldi	r24, 0x01	; 1
    157e:	90 e0       	ldi	r25, 0x00	; 0
    1580:	90 93 1e 03 	sts	0x031E, r25
    1584:	80 93 1d 03 	sts	0x031D, r24
    1588:	0e 94 5d 06 	call	0xcba	; 0xcba <buzzer_on>
    158c:	80 91 1f 03 	lds	r24, 0x031F
    1590:	89 33       	cpi	r24, 0x39	; 57
    1592:	d9 f4       	brne	.+54     	; 0x15ca <__vector_25+0x21e>
    1594:	80 91 1d 03 	lds	r24, 0x031D
    1598:	90 91 1e 03 	lds	r25, 0x031E
    159c:	00 97       	sbiw	r24, 0x00	; 0
    159e:	39 f4       	brne	.+14     	; 0x15ae <__vector_25+0x202>
    15a0:	89 e0       	ldi	r24, 0x09	; 9
    15a2:	90 e0       	ldi	r25, 0x00	; 0
    15a4:	90 93 1b 03 	sts	0x031B, r25
    15a8:	80 93 1a 03 	sts	0x031A, r24
    15ac:	0c c0       	rjmp	.+24     	; 0x15c6 <__vector_25+0x21a>
    15ae:	89 e0       	ldi	r24, 0x09	; 9
    15b0:	90 e0       	ldi	r25, 0x00	; 0
    15b2:	90 93 19 03 	sts	0x0319, r25
    15b6:	80 93 18 03 	sts	0x0318, r24
    15ba:	81 e0       	ldi	r24, 0x01	; 1
    15bc:	90 e0       	ldi	r25, 0x00	; 0
    15be:	90 93 1e 03 	sts	0x031E, r25
    15c2:	80 93 1d 03 	sts	0x031D, r24
    15c6:	0e 94 7c 06 	call	0xcf8	; 0xcf8 <buzzer_off>
    15ca:	80 91 1f 03 	lds	r24, 0x031F
    15ce:	81 33       	cpi	r24, 0x31	; 49
    15d0:	09 f0       	breq	.+2      	; 0x15d4 <__vector_25+0x228>
    15d2:	80 c1       	rjmp	.+768    	; 0x18d4 <__vector_25+0x528>
    15d4:	81 e0       	ldi	r24, 0x01	; 1
    15d6:	90 e0       	ldi	r25, 0x00	; 0
    15d8:	90 93 11 03 	sts	0x0311, r25
    15dc:	80 93 10 03 	sts	0x0310, r24
    15e0:	8a e5       	ldi	r24, 0x5A	; 90
    15e2:	0e 94 4a 01 	call	0x294	; 0x294 <servo_2>
    15e6:	fe 01       	movw	r30, r28
    15e8:	ed 5b       	subi	r30, 0xBD	; 189
    15ea:	ff 4f       	sbci	r31, 0xFF	; 255
    15ec:	80 e0       	ldi	r24, 0x00	; 0
    15ee:	90 e0       	ldi	r25, 0x00	; 0
    15f0:	aa ef       	ldi	r26, 0xFA	; 250
    15f2:	b4 e4       	ldi	r27, 0x44	; 68
    15f4:	80 83       	st	Z, r24
    15f6:	91 83       	std	Z+1, r25	; 0x01
    15f8:	a2 83       	std	Z+2, r26	; 0x02
    15fa:	b3 83       	std	Z+3, r27	; 0x03
    15fc:	8e 01       	movw	r16, r28
    15fe:	01 5c       	subi	r16, 0xC1	; 193
    1600:	1f 4f       	sbci	r17, 0xFF	; 255
    1602:	fe 01       	movw	r30, r28
    1604:	ed 5b       	subi	r30, 0xBD	; 189
    1606:	ff 4f       	sbci	r31, 0xFF	; 255
    1608:	2d ec       	ldi	r18, 0xCD	; 205
    160a:	3c ec       	ldi	r19, 0xCC	; 204
    160c:	4c e2       	ldi	r20, 0x2C	; 44
    160e:	55 e4       	ldi	r21, 0x45	; 69
    1610:	60 81       	ld	r22, Z
    1612:	71 81       	ldd	r23, Z+1	; 0x01
    1614:	82 81       	ldd	r24, Z+2	; 0x02
    1616:	93 81       	ldd	r25, Z+3	; 0x03
    1618:	0e 94 67 0f 	call	0x1ece	; 0x1ece <__mulsf3>
    161c:	dc 01       	movw	r26, r24
    161e:	cb 01       	movw	r24, r22
    1620:	f8 01       	movw	r30, r16
    1622:	80 83       	st	Z, r24
    1624:	91 83       	std	Z+1, r25	; 0x01
    1626:	a2 83       	std	Z+2, r26	; 0x02
    1628:	b3 83       	std	Z+3, r27	; 0x03
    162a:	fe 01       	movw	r30, r28
    162c:	ff 96       	adiw	r30, 0x3f	; 63
    162e:	20 e0       	ldi	r18, 0x00	; 0
    1630:	30 e0       	ldi	r19, 0x00	; 0
    1632:	40 e8       	ldi	r20, 0x80	; 128
    1634:	5f e3       	ldi	r21, 0x3F	; 63
    1636:	60 81       	ld	r22, Z
    1638:	71 81       	ldd	r23, Z+1	; 0x01
    163a:	82 81       	ldd	r24, Z+2	; 0x02
    163c:	93 81       	ldd	r25, Z+3	; 0x03
    163e:	0e 94 87 11 	call	0x230e	; 0x230e <__ltsf2>
    1642:	88 23       	and	r24, r24
    1644:	0c f0       	brlt	.+2      	; 0x1648 <__vector_25+0x29c>
    1646:	05 c0       	rjmp	.+10     	; 0x1652 <__vector_25+0x2a6>
    1648:	81 e0       	ldi	r24, 0x01	; 1
    164a:	90 e0       	ldi	r25, 0x00	; 0
    164c:	9e af       	std	Y+62, r25	; 0x3e
    164e:	8d af       	std	Y+61, r24	; 0x3d
    1650:	47 c0       	rjmp	.+142    	; 0x16e0 <__vector_25+0x334>
    1652:	fe 01       	movw	r30, r28
    1654:	ff 96       	adiw	r30, 0x3f	; 63
    1656:	20 e0       	ldi	r18, 0x00	; 0
    1658:	3f ef       	ldi	r19, 0xFF	; 255
    165a:	4f e7       	ldi	r20, 0x7F	; 127
    165c:	57 e4       	ldi	r21, 0x47	; 71
    165e:	60 81       	ld	r22, Z
    1660:	71 81       	ldd	r23, Z+1	; 0x01
    1662:	82 81       	ldd	r24, Z+2	; 0x02
    1664:	93 81       	ldd	r25, Z+3	; 0x03
    1666:	0e 94 1b 11 	call	0x2236	; 0x2236 <__gtsf2>
    166a:	18 16       	cp	r1, r24
    166c:	0c f0       	brlt	.+2      	; 0x1670 <__vector_25+0x2c4>
    166e:	2c c0       	rjmp	.+88     	; 0x16c8 <__vector_25+0x31c>
    1670:	fe 01       	movw	r30, r28
    1672:	ed 5b       	subi	r30, 0xBD	; 189
    1674:	ff 4f       	sbci	r31, 0xFF	; 255
    1676:	20 e0       	ldi	r18, 0x00	; 0
    1678:	30 e0       	ldi	r19, 0x00	; 0
    167a:	40 e2       	ldi	r20, 0x20	; 32
    167c:	51 e4       	ldi	r21, 0x41	; 65
    167e:	60 81       	ld	r22, Z
    1680:	71 81       	ldd	r23, Z+1	; 0x01
    1682:	82 81       	ldd	r24, Z+2	; 0x02
    1684:	93 81       	ldd	r25, Z+3	; 0x03
    1686:	0e 94 67 0f 	call	0x1ece	; 0x1ece <__mulsf3>
    168a:	dc 01       	movw	r26, r24
    168c:	cb 01       	movw	r24, r22
    168e:	bc 01       	movw	r22, r24
    1690:	cd 01       	movw	r24, r26
    1692:	0e 94 9d 0d 	call	0x1b3a	; 0x1b3a <__fixunssfsi>
    1696:	dc 01       	movw	r26, r24
    1698:	cb 01       	movw	r24, r22
    169a:	9e af       	std	Y+62, r25	; 0x3e
    169c:	8d af       	std	Y+61, r24	; 0x3d
    169e:	0f c0       	rjmp	.+30     	; 0x16be <__vector_25+0x312>
    16a0:	84 e1       	ldi	r24, 0x14	; 20
    16a2:	91 e0       	ldi	r25, 0x01	; 1
    16a4:	9c af       	std	Y+60, r25	; 0x3c
    16a6:	8b af       	std	Y+59, r24	; 0x3b
    16a8:	8b ad       	ldd	r24, Y+59	; 0x3b
    16aa:	9c ad       	ldd	r25, Y+60	; 0x3c
    16ac:	01 97       	sbiw	r24, 0x01	; 1
    16ae:	f1 f7       	brne	.-4      	; 0x16ac <__vector_25+0x300>
    16b0:	9c af       	std	Y+60, r25	; 0x3c
    16b2:	8b af       	std	Y+59, r24	; 0x3b
    16b4:	8d ad       	ldd	r24, Y+61	; 0x3d
    16b6:	9e ad       	ldd	r25, Y+62	; 0x3e
    16b8:	01 97       	sbiw	r24, 0x01	; 1
    16ba:	9e af       	std	Y+62, r25	; 0x3e
    16bc:	8d af       	std	Y+61, r24	; 0x3d
    16be:	8d ad       	ldd	r24, Y+61	; 0x3d
    16c0:	9e ad       	ldd	r25, Y+62	; 0x3e
    16c2:	00 97       	sbiw	r24, 0x00	; 0
    16c4:	69 f7       	brne	.-38     	; 0x16a0 <__vector_25+0x2f4>
    16c6:	16 c0       	rjmp	.+44     	; 0x16f4 <__vector_25+0x348>
    16c8:	fe 01       	movw	r30, r28
    16ca:	ff 96       	adiw	r30, 0x3f	; 63
    16cc:	60 81       	ld	r22, Z
    16ce:	71 81       	ldd	r23, Z+1	; 0x01
    16d0:	82 81       	ldd	r24, Z+2	; 0x02
    16d2:	93 81       	ldd	r25, Z+3	; 0x03
    16d4:	0e 94 9d 0d 	call	0x1b3a	; 0x1b3a <__fixunssfsi>
    16d8:	dc 01       	movw	r26, r24
    16da:	cb 01       	movw	r24, r22
    16dc:	9e af       	std	Y+62, r25	; 0x3e
    16de:	8d af       	std	Y+61, r24	; 0x3d
    16e0:	8d ad       	ldd	r24, Y+61	; 0x3d
    16e2:	9e ad       	ldd	r25, Y+62	; 0x3e
    16e4:	9a af       	std	Y+58, r25	; 0x3a
    16e6:	89 af       	std	Y+57, r24	; 0x39
    16e8:	89 ad       	ldd	r24, Y+57	; 0x39
    16ea:	9a ad       	ldd	r25, Y+58	; 0x3a
    16ec:	01 97       	sbiw	r24, 0x01	; 1
    16ee:	f1 f7       	brne	.-4      	; 0x16ec <__vector_25+0x340>
    16f0:	9a af       	std	Y+58, r25	; 0x3a
    16f2:	89 af       	std	Y+57, r24	; 0x39
    16f4:	80 e0       	ldi	r24, 0x00	; 0
    16f6:	90 e0       	ldi	r25, 0x00	; 0
    16f8:	aa e7       	ldi	r26, 0x7A	; 122
    16fa:	b5 e4       	ldi	r27, 0x45	; 69
    16fc:	8d ab       	std	Y+53, r24	; 0x35
    16fe:	9e ab       	std	Y+54, r25	; 0x36
    1700:	af ab       	std	Y+55, r26	; 0x37
    1702:	b8 af       	std	Y+56, r27	; 0x38
    1704:	2d ec       	ldi	r18, 0xCD	; 205
    1706:	3c ec       	ldi	r19, 0xCC	; 204
    1708:	4c e2       	ldi	r20, 0x2C	; 44
    170a:	55 e4       	ldi	r21, 0x45	; 69
    170c:	6d a9       	ldd	r22, Y+53	; 0x35
    170e:	7e a9       	ldd	r23, Y+54	; 0x36
    1710:	8f a9       	ldd	r24, Y+55	; 0x37
    1712:	98 ad       	ldd	r25, Y+56	; 0x38
    1714:	0e 94 67 0f 	call	0x1ece	; 0x1ece <__mulsf3>
    1718:	dc 01       	movw	r26, r24
    171a:	cb 01       	movw	r24, r22
    171c:	89 ab       	std	Y+49, r24	; 0x31
    171e:	9a ab       	std	Y+50, r25	; 0x32
    1720:	ab ab       	std	Y+51, r26	; 0x33
    1722:	bc ab       	std	Y+52, r27	; 0x34
    1724:	20 e0       	ldi	r18, 0x00	; 0
    1726:	30 e0       	ldi	r19, 0x00	; 0
    1728:	40 e8       	ldi	r20, 0x80	; 128
    172a:	5f e3       	ldi	r21, 0x3F	; 63
    172c:	69 a9       	ldd	r22, Y+49	; 0x31
    172e:	7a a9       	ldd	r23, Y+50	; 0x32
    1730:	8b a9       	ldd	r24, Y+51	; 0x33
    1732:	9c a9       	ldd	r25, Y+52	; 0x34
    1734:	0e 94 87 11 	call	0x230e	; 0x230e <__ltsf2>
    1738:	88 23       	and	r24, r24
    173a:	0c f0       	brlt	.+2      	; 0x173e <__vector_25+0x392>
    173c:	05 c0       	rjmp	.+10     	; 0x1748 <__vector_25+0x39c>
    173e:	81 e0       	ldi	r24, 0x01	; 1
    1740:	90 e0       	ldi	r25, 0x00	; 0
    1742:	98 ab       	std	Y+48, r25	; 0x30
    1744:	8f a7       	std	Y+47, r24	; 0x2f
    1746:	40 c0       	rjmp	.+128    	; 0x17c8 <__vector_25+0x41c>
    1748:	20 e0       	ldi	r18, 0x00	; 0
    174a:	3f ef       	ldi	r19, 0xFF	; 255
    174c:	4f e7       	ldi	r20, 0x7F	; 127
    174e:	57 e4       	ldi	r21, 0x47	; 71
    1750:	69 a9       	ldd	r22, Y+49	; 0x31
    1752:	7a a9       	ldd	r23, Y+50	; 0x32
    1754:	8b a9       	ldd	r24, Y+51	; 0x33
    1756:	9c a9       	ldd	r25, Y+52	; 0x34
    1758:	0e 94 1b 11 	call	0x2236	; 0x2236 <__gtsf2>
    175c:	18 16       	cp	r1, r24
    175e:	0c f0       	brlt	.+2      	; 0x1762 <__vector_25+0x3b6>
    1760:	29 c0       	rjmp	.+82     	; 0x17b4 <__vector_25+0x408>
    1762:	20 e0       	ldi	r18, 0x00	; 0
    1764:	30 e0       	ldi	r19, 0x00	; 0
    1766:	40 e2       	ldi	r20, 0x20	; 32
    1768:	51 e4       	ldi	r21, 0x41	; 65
    176a:	6d a9       	ldd	r22, Y+53	; 0x35
    176c:	7e a9       	ldd	r23, Y+54	; 0x36
    176e:	8f a9       	ldd	r24, Y+55	; 0x37
    1770:	98 ad       	ldd	r25, Y+56	; 0x38
    1772:	0e 94 67 0f 	call	0x1ece	; 0x1ece <__mulsf3>
    1776:	dc 01       	movw	r26, r24
    1778:	cb 01       	movw	r24, r22
    177a:	bc 01       	movw	r22, r24
    177c:	cd 01       	movw	r24, r26
    177e:	0e 94 9d 0d 	call	0x1b3a	; 0x1b3a <__fixunssfsi>
    1782:	dc 01       	movw	r26, r24
    1784:	cb 01       	movw	r24, r22
    1786:	98 ab       	std	Y+48, r25	; 0x30
    1788:	8f a7       	std	Y+47, r24	; 0x2f
    178a:	0f c0       	rjmp	.+30     	; 0x17aa <__vector_25+0x3fe>
    178c:	84 e1       	ldi	r24, 0x14	; 20
    178e:	91 e0       	ldi	r25, 0x01	; 1
    1790:	9e a7       	std	Y+46, r25	; 0x2e
    1792:	8d a7       	std	Y+45, r24	; 0x2d
    1794:	8d a5       	ldd	r24, Y+45	; 0x2d
    1796:	9e a5       	ldd	r25, Y+46	; 0x2e
    1798:	01 97       	sbiw	r24, 0x01	; 1
    179a:	f1 f7       	brne	.-4      	; 0x1798 <__vector_25+0x3ec>
    179c:	9e a7       	std	Y+46, r25	; 0x2e
    179e:	8d a7       	std	Y+45, r24	; 0x2d
    17a0:	8f a5       	ldd	r24, Y+47	; 0x2f
    17a2:	98 a9       	ldd	r25, Y+48	; 0x30
    17a4:	01 97       	sbiw	r24, 0x01	; 1
    17a6:	98 ab       	std	Y+48, r25	; 0x30
    17a8:	8f a7       	std	Y+47, r24	; 0x2f
    17aa:	8f a5       	ldd	r24, Y+47	; 0x2f
    17ac:	98 a9       	ldd	r25, Y+48	; 0x30
    17ae:	00 97       	sbiw	r24, 0x00	; 0
    17b0:	69 f7       	brne	.-38     	; 0x178c <__vector_25+0x3e0>
    17b2:	14 c0       	rjmp	.+40     	; 0x17dc <__vector_25+0x430>
    17b4:	69 a9       	ldd	r22, Y+49	; 0x31
    17b6:	7a a9       	ldd	r23, Y+50	; 0x32
    17b8:	8b a9       	ldd	r24, Y+51	; 0x33
    17ba:	9c a9       	ldd	r25, Y+52	; 0x34
    17bc:	0e 94 9d 0d 	call	0x1b3a	; 0x1b3a <__fixunssfsi>
    17c0:	dc 01       	movw	r26, r24
    17c2:	cb 01       	movw	r24, r22
    17c4:	98 ab       	std	Y+48, r25	; 0x30
    17c6:	8f a7       	std	Y+47, r24	; 0x2f
    17c8:	8f a5       	ldd	r24, Y+47	; 0x2f
    17ca:	98 a9       	ldd	r25, Y+48	; 0x30
    17cc:	9c a7       	std	Y+44, r25	; 0x2c
    17ce:	8b a7       	std	Y+43, r24	; 0x2b
    17d0:	8b a5       	ldd	r24, Y+43	; 0x2b
    17d2:	9c a5       	ldd	r25, Y+44	; 0x2c
    17d4:	01 97       	sbiw	r24, 0x01	; 1
    17d6:	f1 f7       	brne	.-4      	; 0x17d4 <__vector_25+0x428>
    17d8:	9c a7       	std	Y+44, r25	; 0x2c
    17da:	8b a7       	std	Y+43, r24	; 0x2b
    17dc:	62 e0       	ldi	r22, 0x02	; 2
    17de:	70 e0       	ldi	r23, 0x00	; 0
    17e0:	84 e0       	ldi	r24, 0x04	; 4
    17e2:	90 e0       	ldi	r25, 0x00	; 0
    17e4:	0e 94 82 09 	call	0x1304	; 0x1304 <reach_dest>
    17e8:	80 e0       	ldi	r24, 0x00	; 0
    17ea:	90 e0       	ldi	r25, 0x00	; 0
    17ec:	aa ef       	ldi	r26, 0xFA	; 250
    17ee:	b4 e4       	ldi	r27, 0x44	; 68
    17f0:	8f a3       	std	Y+39, r24	; 0x27
    17f2:	98 a7       	std	Y+40, r25	; 0x28
    17f4:	a9 a7       	std	Y+41, r26	; 0x29
    17f6:	ba a7       	std	Y+42, r27	; 0x2a
    17f8:	2d ec       	ldi	r18, 0xCD	; 205
    17fa:	3c ec       	ldi	r19, 0xCC	; 204
    17fc:	4c e2       	ldi	r20, 0x2C	; 44
    17fe:	55 e4       	ldi	r21, 0x45	; 69
    1800:	6f a1       	ldd	r22, Y+39	; 0x27
    1802:	78 a5       	ldd	r23, Y+40	; 0x28
    1804:	89 a5       	ldd	r24, Y+41	; 0x29
    1806:	9a a5       	ldd	r25, Y+42	; 0x2a
    1808:	0e 94 67 0f 	call	0x1ece	; 0x1ece <__mulsf3>
    180c:	dc 01       	movw	r26, r24
    180e:	cb 01       	movw	r24, r22
    1810:	8b a3       	std	Y+35, r24	; 0x23
    1812:	9c a3       	std	Y+36, r25	; 0x24
    1814:	ad a3       	std	Y+37, r26	; 0x25
    1816:	be a3       	std	Y+38, r27	; 0x26
    1818:	20 e0       	ldi	r18, 0x00	; 0
    181a:	30 e0       	ldi	r19, 0x00	; 0
    181c:	40 e8       	ldi	r20, 0x80	; 128
    181e:	5f e3       	ldi	r21, 0x3F	; 63
    1820:	6b a1       	ldd	r22, Y+35	; 0x23
    1822:	7c a1       	ldd	r23, Y+36	; 0x24
    1824:	8d a1       	ldd	r24, Y+37	; 0x25
    1826:	9e a1       	ldd	r25, Y+38	; 0x26
    1828:	0e 94 87 11 	call	0x230e	; 0x230e <__ltsf2>
    182c:	88 23       	and	r24, r24
    182e:	0c f0       	brlt	.+2      	; 0x1832 <__vector_25+0x486>
    1830:	05 c0       	rjmp	.+10     	; 0x183c <__vector_25+0x490>
    1832:	81 e0       	ldi	r24, 0x01	; 1
    1834:	90 e0       	ldi	r25, 0x00	; 0
    1836:	9a a3       	std	Y+34, r25	; 0x22
    1838:	89 a3       	std	Y+33, r24	; 0x21
    183a:	40 c0       	rjmp	.+128    	; 0x18bc <__vector_25+0x510>
    183c:	20 e0       	ldi	r18, 0x00	; 0
    183e:	3f ef       	ldi	r19, 0xFF	; 255
    1840:	4f e7       	ldi	r20, 0x7F	; 127
    1842:	57 e4       	ldi	r21, 0x47	; 71
    1844:	6b a1       	ldd	r22, Y+35	; 0x23
    1846:	7c a1       	ldd	r23, Y+36	; 0x24
    1848:	8d a1       	ldd	r24, Y+37	; 0x25
    184a:	9e a1       	ldd	r25, Y+38	; 0x26
    184c:	0e 94 1b 11 	call	0x2236	; 0x2236 <__gtsf2>
    1850:	18 16       	cp	r1, r24
    1852:	0c f0       	brlt	.+2      	; 0x1856 <__vector_25+0x4aa>
    1854:	29 c0       	rjmp	.+82     	; 0x18a8 <__vector_25+0x4fc>
    1856:	20 e0       	ldi	r18, 0x00	; 0
    1858:	30 e0       	ldi	r19, 0x00	; 0
    185a:	40 e2       	ldi	r20, 0x20	; 32
    185c:	51 e4       	ldi	r21, 0x41	; 65
    185e:	6f a1       	ldd	r22, Y+39	; 0x27
    1860:	78 a5       	ldd	r23, Y+40	; 0x28
    1862:	89 a5       	ldd	r24, Y+41	; 0x29
    1864:	9a a5       	ldd	r25, Y+42	; 0x2a
    1866:	0e 94 67 0f 	call	0x1ece	; 0x1ece <__mulsf3>
    186a:	dc 01       	movw	r26, r24
    186c:	cb 01       	movw	r24, r22
    186e:	bc 01       	movw	r22, r24
    1870:	cd 01       	movw	r24, r26
    1872:	0e 94 9d 0d 	call	0x1b3a	; 0x1b3a <__fixunssfsi>
    1876:	dc 01       	movw	r26, r24
    1878:	cb 01       	movw	r24, r22
    187a:	9a a3       	std	Y+34, r25	; 0x22
    187c:	89 a3       	std	Y+33, r24	; 0x21
    187e:	0f c0       	rjmp	.+30     	; 0x189e <__vector_25+0x4f2>
    1880:	84 e1       	ldi	r24, 0x14	; 20
    1882:	91 e0       	ldi	r25, 0x01	; 1
    1884:	98 a3       	std	Y+32, r25	; 0x20
    1886:	8f 8f       	std	Y+31, r24	; 0x1f
    1888:	8f 8d       	ldd	r24, Y+31	; 0x1f
    188a:	98 a1       	ldd	r25, Y+32	; 0x20
    188c:	01 97       	sbiw	r24, 0x01	; 1
    188e:	f1 f7       	brne	.-4      	; 0x188c <__vector_25+0x4e0>
    1890:	98 a3       	std	Y+32, r25	; 0x20
    1892:	8f 8f       	std	Y+31, r24	; 0x1f
    1894:	89 a1       	ldd	r24, Y+33	; 0x21
    1896:	9a a1       	ldd	r25, Y+34	; 0x22
    1898:	01 97       	sbiw	r24, 0x01	; 1
    189a:	9a a3       	std	Y+34, r25	; 0x22
    189c:	89 a3       	std	Y+33, r24	; 0x21
    189e:	89 a1       	ldd	r24, Y+33	; 0x21
    18a0:	9a a1       	ldd	r25, Y+34	; 0x22
    18a2:	00 97       	sbiw	r24, 0x00	; 0
    18a4:	69 f7       	brne	.-38     	; 0x1880 <__vector_25+0x4d4>
    18a6:	14 c0       	rjmp	.+40     	; 0x18d0 <__vector_25+0x524>
    18a8:	6b a1       	ldd	r22, Y+35	; 0x23
    18aa:	7c a1       	ldd	r23, Y+36	; 0x24
    18ac:	8d a1       	ldd	r24, Y+37	; 0x25
    18ae:	9e a1       	ldd	r25, Y+38	; 0x26
    18b0:	0e 94 9d 0d 	call	0x1b3a	; 0x1b3a <__fixunssfsi>
    18b4:	dc 01       	movw	r26, r24
    18b6:	cb 01       	movw	r24, r22
    18b8:	9a a3       	std	Y+34, r25	; 0x22
    18ba:	89 a3       	std	Y+33, r24	; 0x21
    18bc:	89 a1       	ldd	r24, Y+33	; 0x21
    18be:	9a a1       	ldd	r25, Y+34	; 0x22
    18c0:	9e 8f       	std	Y+30, r25	; 0x1e
    18c2:	8d 8f       	std	Y+29, r24	; 0x1d
    18c4:	8d 8d       	ldd	r24, Y+29	; 0x1d
    18c6:	9e 8d       	ldd	r25, Y+30	; 0x1e
    18c8:	01 97       	sbiw	r24, 0x01	; 1
    18ca:	f1 f7       	brne	.-4      	; 0x18c8 <__vector_25+0x51c>
    18cc:	9e 8f       	std	Y+30, r25	; 0x1e
    18ce:	8d 8f       	std	Y+29, r24	; 0x1d
    18d0:	0e 94 cc 09 	call	0x1398	; 0x1398 <drop_object>
    18d4:	80 91 1f 03 	lds	r24, 0x031F
    18d8:	80 33       	cpi	r24, 0x30	; 48
    18da:	09 f0       	breq	.+2      	; 0x18de <__vector_25+0x532>
    18dc:	f0 c0       	rjmp	.+480    	; 0x1abe <__vector_25+0x712>
    18de:	8a e5       	ldi	r24, 0x5A	; 90
    18e0:	0e 94 f8 00 	call	0x1f0	; 0x1f0 <servo_1>
    18e4:	80 e0       	ldi	r24, 0x00	; 0
    18e6:	90 e0       	ldi	r25, 0x00	; 0
    18e8:	aa ef       	ldi	r26, 0xFA	; 250
    18ea:	b4 e4       	ldi	r27, 0x44	; 68
    18ec:	89 8f       	std	Y+25, r24	; 0x19
    18ee:	9a 8f       	std	Y+26, r25	; 0x1a
    18f0:	ab 8f       	std	Y+27, r26	; 0x1b
    18f2:	bc 8f       	std	Y+28, r27	; 0x1c
    18f4:	2d ec       	ldi	r18, 0xCD	; 205
    18f6:	3c ec       	ldi	r19, 0xCC	; 204
    18f8:	4c e2       	ldi	r20, 0x2C	; 44
    18fa:	55 e4       	ldi	r21, 0x45	; 69
    18fc:	69 8d       	ldd	r22, Y+25	; 0x19
    18fe:	7a 8d       	ldd	r23, Y+26	; 0x1a
    1900:	8b 8d       	ldd	r24, Y+27	; 0x1b
    1902:	9c 8d       	ldd	r25, Y+28	; 0x1c
    1904:	0e 94 67 0f 	call	0x1ece	; 0x1ece <__mulsf3>
    1908:	dc 01       	movw	r26, r24
    190a:	cb 01       	movw	r24, r22
    190c:	8d 8b       	std	Y+21, r24	; 0x15
    190e:	9e 8b       	std	Y+22, r25	; 0x16
    1910:	af 8b       	std	Y+23, r26	; 0x17
    1912:	b8 8f       	std	Y+24, r27	; 0x18
    1914:	20 e0       	ldi	r18, 0x00	; 0
    1916:	30 e0       	ldi	r19, 0x00	; 0
    1918:	40 e8       	ldi	r20, 0x80	; 128
    191a:	5f e3       	ldi	r21, 0x3F	; 63
    191c:	6d 89       	ldd	r22, Y+21	; 0x15
    191e:	7e 89       	ldd	r23, Y+22	; 0x16
    1920:	8f 89       	ldd	r24, Y+23	; 0x17
    1922:	98 8d       	ldd	r25, Y+24	; 0x18
    1924:	0e 94 87 11 	call	0x230e	; 0x230e <__ltsf2>
    1928:	88 23       	and	r24, r24
    192a:	0c f0       	brlt	.+2      	; 0x192e <__vector_25+0x582>
    192c:	05 c0       	rjmp	.+10     	; 0x1938 <__vector_25+0x58c>
    192e:	81 e0       	ldi	r24, 0x01	; 1
    1930:	90 e0       	ldi	r25, 0x00	; 0
    1932:	9c 8b       	std	Y+20, r25	; 0x14
    1934:	8b 8b       	std	Y+19, r24	; 0x13
    1936:	40 c0       	rjmp	.+128    	; 0x19b8 <__vector_25+0x60c>
    1938:	20 e0       	ldi	r18, 0x00	; 0
    193a:	3f ef       	ldi	r19, 0xFF	; 255
    193c:	4f e7       	ldi	r20, 0x7F	; 127
    193e:	57 e4       	ldi	r21, 0x47	; 71
    1940:	6d 89       	ldd	r22, Y+21	; 0x15
    1942:	7e 89       	ldd	r23, Y+22	; 0x16
    1944:	8f 89       	ldd	r24, Y+23	; 0x17
    1946:	98 8d       	ldd	r25, Y+24	; 0x18
    1948:	0e 94 1b 11 	call	0x2236	; 0x2236 <__gtsf2>
    194c:	18 16       	cp	r1, r24
    194e:	0c f0       	brlt	.+2      	; 0x1952 <__vector_25+0x5a6>
    1950:	29 c0       	rjmp	.+82     	; 0x19a4 <__vector_25+0x5f8>
    1952:	20 e0       	ldi	r18, 0x00	; 0
    1954:	30 e0       	ldi	r19, 0x00	; 0
    1956:	40 e2       	ldi	r20, 0x20	; 32
    1958:	51 e4       	ldi	r21, 0x41	; 65
    195a:	69 8d       	ldd	r22, Y+25	; 0x19
    195c:	7a 8d       	ldd	r23, Y+26	; 0x1a
    195e:	8b 8d       	ldd	r24, Y+27	; 0x1b
    1960:	9c 8d       	ldd	r25, Y+28	; 0x1c
    1962:	0e 94 67 0f 	call	0x1ece	; 0x1ece <__mulsf3>
    1966:	dc 01       	movw	r26, r24
    1968:	cb 01       	movw	r24, r22
    196a:	bc 01       	movw	r22, r24
    196c:	cd 01       	movw	r24, r26
    196e:	0e 94 9d 0d 	call	0x1b3a	; 0x1b3a <__fixunssfsi>
    1972:	dc 01       	movw	r26, r24
    1974:	cb 01       	movw	r24, r22
    1976:	9c 8b       	std	Y+20, r25	; 0x14
    1978:	8b 8b       	std	Y+19, r24	; 0x13
    197a:	0f c0       	rjmp	.+30     	; 0x199a <__vector_25+0x5ee>
    197c:	84 e1       	ldi	r24, 0x14	; 20
    197e:	91 e0       	ldi	r25, 0x01	; 1
    1980:	9a 8b       	std	Y+18, r25	; 0x12
    1982:	89 8b       	std	Y+17, r24	; 0x11
    1984:	89 89       	ldd	r24, Y+17	; 0x11
    1986:	9a 89       	ldd	r25, Y+18	; 0x12
    1988:	01 97       	sbiw	r24, 0x01	; 1
    198a:	f1 f7       	brne	.-4      	; 0x1988 <__vector_25+0x5dc>
    198c:	9a 8b       	std	Y+18, r25	; 0x12
    198e:	89 8b       	std	Y+17, r24	; 0x11
    1990:	8b 89       	ldd	r24, Y+19	; 0x13
    1992:	9c 89       	ldd	r25, Y+20	; 0x14
    1994:	01 97       	sbiw	r24, 0x01	; 1
    1996:	9c 8b       	std	Y+20, r25	; 0x14
    1998:	8b 8b       	std	Y+19, r24	; 0x13
    199a:	8b 89       	ldd	r24, Y+19	; 0x13
    199c:	9c 89       	ldd	r25, Y+20	; 0x14
    199e:	00 97       	sbiw	r24, 0x00	; 0
    19a0:	69 f7       	brne	.-38     	; 0x197c <__vector_25+0x5d0>
    19a2:	14 c0       	rjmp	.+40     	; 0x19cc <__vector_25+0x620>
    19a4:	6d 89       	ldd	r22, Y+21	; 0x15
    19a6:	7e 89       	ldd	r23, Y+22	; 0x16
    19a8:	8f 89       	ldd	r24, Y+23	; 0x17
    19aa:	98 8d       	ldd	r25, Y+24	; 0x18
    19ac:	0e 94 9d 0d 	call	0x1b3a	; 0x1b3a <__fixunssfsi>
    19b0:	dc 01       	movw	r26, r24
    19b2:	cb 01       	movw	r24, r22
    19b4:	9c 8b       	std	Y+20, r25	; 0x14
    19b6:	8b 8b       	std	Y+19, r24	; 0x13
    19b8:	8b 89       	ldd	r24, Y+19	; 0x13
    19ba:	9c 89       	ldd	r25, Y+20	; 0x14
    19bc:	98 8b       	std	Y+16, r25	; 0x10
    19be:	8f 87       	std	Y+15, r24	; 0x0f
    19c0:	8f 85       	ldd	r24, Y+15	; 0x0f
    19c2:	98 89       	ldd	r25, Y+16	; 0x10
    19c4:	01 97       	sbiw	r24, 0x01	; 1
    19c6:	f1 f7       	brne	.-4      	; 0x19c4 <__vector_25+0x618>
    19c8:	98 8b       	std	Y+16, r25	; 0x10
    19ca:	8f 87       	std	Y+15, r24	; 0x0f
    19cc:	8a e5       	ldi	r24, 0x5A	; 90
    19ce:	0e 94 4a 01 	call	0x294	; 0x294 <servo_2>
    19d2:	80 e0       	ldi	r24, 0x00	; 0
    19d4:	90 e0       	ldi	r25, 0x00	; 0
    19d6:	aa ef       	ldi	r26, 0xFA	; 250
    19d8:	b4 e4       	ldi	r27, 0x44	; 68
    19da:	8b 87       	std	Y+11, r24	; 0x0b
    19dc:	9c 87       	std	Y+12, r25	; 0x0c
    19de:	ad 87       	std	Y+13, r26	; 0x0d
    19e0:	be 87       	std	Y+14, r27	; 0x0e
    19e2:	2d ec       	ldi	r18, 0xCD	; 205
    19e4:	3c ec       	ldi	r19, 0xCC	; 204
    19e6:	4c e2       	ldi	r20, 0x2C	; 44
    19e8:	55 e4       	ldi	r21, 0x45	; 69
    19ea:	6b 85       	ldd	r22, Y+11	; 0x0b
    19ec:	7c 85       	ldd	r23, Y+12	; 0x0c
    19ee:	8d 85       	ldd	r24, Y+13	; 0x0d
    19f0:	9e 85       	ldd	r25, Y+14	; 0x0e
    19f2:	0e 94 67 0f 	call	0x1ece	; 0x1ece <__mulsf3>
    19f6:	dc 01       	movw	r26, r24
    19f8:	cb 01       	movw	r24, r22
    19fa:	8f 83       	std	Y+7, r24	; 0x07
    19fc:	98 87       	std	Y+8, r25	; 0x08
    19fe:	a9 87       	std	Y+9, r26	; 0x09
    1a00:	ba 87       	std	Y+10, r27	; 0x0a
    1a02:	20 e0       	ldi	r18, 0x00	; 0
    1a04:	30 e0       	ldi	r19, 0x00	; 0
    1a06:	40 e8       	ldi	r20, 0x80	; 128
    1a08:	5f e3       	ldi	r21, 0x3F	; 63
    1a0a:	6f 81       	ldd	r22, Y+7	; 0x07
    1a0c:	78 85       	ldd	r23, Y+8	; 0x08
    1a0e:	89 85       	ldd	r24, Y+9	; 0x09
    1a10:	9a 85       	ldd	r25, Y+10	; 0x0a
    1a12:	0e 94 87 11 	call	0x230e	; 0x230e <__ltsf2>
    1a16:	88 23       	and	r24, r24
    1a18:	0c f0       	brlt	.+2      	; 0x1a1c <__vector_25+0x670>
    1a1a:	05 c0       	rjmp	.+10     	; 0x1a26 <__vector_25+0x67a>
    1a1c:	81 e0       	ldi	r24, 0x01	; 1
    1a1e:	90 e0       	ldi	r25, 0x00	; 0
    1a20:	9e 83       	std	Y+6, r25	; 0x06
    1a22:	8d 83       	std	Y+5, r24	; 0x05
    1a24:	40 c0       	rjmp	.+128    	; 0x1aa6 <__vector_25+0x6fa>
    1a26:	20 e0       	ldi	r18, 0x00	; 0
    1a28:	3f ef       	ldi	r19, 0xFF	; 255
    1a2a:	4f e7       	ldi	r20, 0x7F	; 127
    1a2c:	57 e4       	ldi	r21, 0x47	; 71
    1a2e:	6f 81       	ldd	r22, Y+7	; 0x07
    1a30:	78 85       	ldd	r23, Y+8	; 0x08
    1a32:	89 85       	ldd	r24, Y+9	; 0x09
    1a34:	9a 85       	ldd	r25, Y+10	; 0x0a
    1a36:	0e 94 1b 11 	call	0x2236	; 0x2236 <__gtsf2>
    1a3a:	18 16       	cp	r1, r24
    1a3c:	0c f0       	brlt	.+2      	; 0x1a40 <__vector_25+0x694>
    1a3e:	29 c0       	rjmp	.+82     	; 0x1a92 <__vector_25+0x6e6>
    1a40:	20 e0       	ldi	r18, 0x00	; 0
    1a42:	30 e0       	ldi	r19, 0x00	; 0
    1a44:	40 e2       	ldi	r20, 0x20	; 32
    1a46:	51 e4       	ldi	r21, 0x41	; 65
    1a48:	6b 85       	ldd	r22, Y+11	; 0x0b
    1a4a:	7c 85       	ldd	r23, Y+12	; 0x0c
    1a4c:	8d 85       	ldd	r24, Y+13	; 0x0d
    1a4e:	9e 85       	ldd	r25, Y+14	; 0x0e
    1a50:	0e 94 67 0f 	call	0x1ece	; 0x1ece <__mulsf3>
    1a54:	dc 01       	movw	r26, r24
    1a56:	cb 01       	movw	r24, r22
    1a58:	bc 01       	movw	r22, r24
    1a5a:	cd 01       	movw	r24, r26
    1a5c:	0e 94 9d 0d 	call	0x1b3a	; 0x1b3a <__fixunssfsi>
    1a60:	dc 01       	movw	r26, r24
    1a62:	cb 01       	movw	r24, r22
    1a64:	9e 83       	std	Y+6, r25	; 0x06
    1a66:	8d 83       	std	Y+5, r24	; 0x05
    1a68:	0f c0       	rjmp	.+30     	; 0x1a88 <__vector_25+0x6dc>
    1a6a:	84 e1       	ldi	r24, 0x14	; 20
    1a6c:	91 e0       	ldi	r25, 0x01	; 1
    1a6e:	9c 83       	std	Y+4, r25	; 0x04
    1a70:	8b 83       	std	Y+3, r24	; 0x03
    1a72:	8b 81       	ldd	r24, Y+3	; 0x03
    1a74:	9c 81       	ldd	r25, Y+4	; 0x04
    1a76:	01 97       	sbiw	r24, 0x01	; 1
    1a78:	f1 f7       	brne	.-4      	; 0x1a76 <__vector_25+0x6ca>
    1a7a:	9c 83       	std	Y+4, r25	; 0x04
    1a7c:	8b 83       	std	Y+3, r24	; 0x03
    1a7e:	8d 81       	ldd	r24, Y+5	; 0x05
    1a80:	9e 81       	ldd	r25, Y+6	; 0x06
    1a82:	01 97       	sbiw	r24, 0x01	; 1
    1a84:	9e 83       	std	Y+6, r25	; 0x06
    1a86:	8d 83       	std	Y+5, r24	; 0x05
    1a88:	8d 81       	ldd	r24, Y+5	; 0x05
    1a8a:	9e 81       	ldd	r25, Y+6	; 0x06
    1a8c:	00 97       	sbiw	r24, 0x00	; 0
    1a8e:	69 f7       	brne	.-38     	; 0x1a6a <__vector_25+0x6be>
    1a90:	14 c0       	rjmp	.+40     	; 0x1aba <__vector_25+0x70e>
    1a92:	6f 81       	ldd	r22, Y+7	; 0x07
    1a94:	78 85       	ldd	r23, Y+8	; 0x08
    1a96:	89 85       	ldd	r24, Y+9	; 0x09
    1a98:	9a 85       	ldd	r25, Y+10	; 0x0a
    1a9a:	0e 94 9d 0d 	call	0x1b3a	; 0x1b3a <__fixunssfsi>
    1a9e:	dc 01       	movw	r26, r24
    1aa0:	cb 01       	movw	r24, r22
    1aa2:	9e 83       	std	Y+6, r25	; 0x06
    1aa4:	8d 83       	std	Y+5, r24	; 0x05
    1aa6:	8d 81       	ldd	r24, Y+5	; 0x05
    1aa8:	9e 81       	ldd	r25, Y+6	; 0x06
    1aaa:	9a 83       	std	Y+2, r25	; 0x02
    1aac:	89 83       	std	Y+1, r24	; 0x01
    1aae:	89 81       	ldd	r24, Y+1	; 0x01
    1ab0:	9a 81       	ldd	r25, Y+2	; 0x02
    1ab2:	01 97       	sbiw	r24, 0x01	; 1
    1ab4:	f1 f7       	brne	.-4      	; 0x1ab2 <__vector_25+0x706>
    1ab6:	9a 83       	std	Y+2, r25	; 0x02
    1ab8:	89 83       	std	Y+1, r24	; 0x01
    1aba:	0e 94 b8 06 	call	0xd70	; 0xd70 <do_work>
    1abe:	ca 5b       	subi	r28, 0xBA	; 186
    1ac0:	df 4f       	sbci	r29, 0xFF	; 255
    1ac2:	f8 94       	cli
    1ac4:	de bf       	out	0x3e, r29	; 62
    1ac6:	cd bf       	out	0x3d, r28	; 61
    1ac8:	df 91       	pop	r29
    1aca:	cf 91       	pop	r28
    1acc:	ff 91       	pop	r31
    1ace:	ef 91       	pop	r30
    1ad0:	bf 91       	pop	r27
    1ad2:	af 91       	pop	r26
    1ad4:	9f 91       	pop	r25
    1ad6:	8f 91       	pop	r24
    1ad8:	7f 91       	pop	r23
    1ada:	6f 91       	pop	r22
    1adc:	5f 91       	pop	r21
    1ade:	4f 91       	pop	r20
    1ae0:	3f 91       	pop	r19
    1ae2:	2f 91       	pop	r18
    1ae4:	1f 91       	pop	r17
    1ae6:	0f 91       	pop	r16
    1ae8:	0f 90       	pop	r0
    1aea:	0f be       	out	0x3f, r0	; 63
    1aec:	0f 90       	pop	r0
    1aee:	1f 90       	pop	r1
    1af0:	18 95       	reti

00001af2 <init_devices>:
    1af2:	cf 93       	push	r28
    1af4:	df 93       	push	r29
    1af6:	cd b7       	in	r28, 0x3d	; 61
    1af8:	de b7       	in	r29, 0x3e	; 62
    1afa:	f8 94       	cli
    1afc:	0e 94 6d 02 	call	0x4da	; 0x4da <port_init>
    1b00:	0e 94 9c 06 	call	0xd38	; 0xd38 <uart0_init>
    1b04:	0e 94 a0 05 	call	0xb40	; 0xb40 <adc_init>
    1b08:	0e 94 71 05 	call	0xae2	; 0xae2 <timer5_init>
    1b0c:	0e 94 ee 01 	call	0x3dc	; 0x3dc <timer1_init>
    1b10:	0e 94 86 02 	call	0x50c	; 0x50c <left_position_encoder_interrupt_init>
    1b14:	0e 94 9d 02 	call	0x53a	; 0x53a <right_position_encoder_interrupt_init>
    1b18:	78 94       	sei
    1b1a:	df 91       	pop	r29
    1b1c:	cf 91       	pop	r28
    1b1e:	08 95       	ret

00001b20 <main>:
    1b20:	cf 93       	push	r28
    1b22:	df 93       	push	r29
    1b24:	cd b7       	in	r28, 0x3d	; 61
    1b26:	de b7       	in	r29, 0x3e	; 62
    1b28:	0e 94 79 0d 	call	0x1af2	; 0x1af2 <init_devices>
    1b2c:	10 92 1e 03 	sts	0x031E, r1
    1b30:	10 92 1d 03 	sts	0x031D, r1
    1b34:	0e 94 b8 06 	call	0xd70	; 0xd70 <do_work>
    1b38:	ff cf       	rjmp	.-2      	; 0x1b38 <main+0x18>

00001b3a <__fixunssfsi>:
    1b3a:	ef 92       	push	r14
    1b3c:	ff 92       	push	r15
    1b3e:	0f 93       	push	r16
    1b40:	1f 93       	push	r17
    1b42:	7b 01       	movw	r14, r22
    1b44:	8c 01       	movw	r16, r24
    1b46:	20 e0       	ldi	r18, 0x00	; 0
    1b48:	30 e0       	ldi	r19, 0x00	; 0
    1b4a:	40 e0       	ldi	r20, 0x00	; 0
    1b4c:	5f e4       	ldi	r21, 0x4F	; 79
    1b4e:	0e 94 51 11 	call	0x22a2	; 0x22a2 <__gesf2>
    1b52:	88 23       	and	r24, r24
    1b54:	7c f0       	brlt	.+30     	; 0x1b74 <__fixunssfsi+0x3a>
    1b56:	20 e0       	ldi	r18, 0x00	; 0
    1b58:	30 e0       	ldi	r19, 0x00	; 0
    1b5a:	40 e0       	ldi	r20, 0x00	; 0
    1b5c:	5f e4       	ldi	r21, 0x4F	; 79
    1b5e:	c8 01       	movw	r24, r16
    1b60:	b7 01       	movw	r22, r14
    1b62:	0e 94 09 0f 	call	0x1e12	; 0x1e12 <__subsf3>
    1b66:	0e 94 bd 11 	call	0x237a	; 0x237a <__fixsfsi>
    1b6a:	60 50       	subi	r22, 0x00	; 0
    1b6c:	70 40       	sbci	r23, 0x00	; 0
    1b6e:	80 40       	sbci	r24, 0x00	; 0
    1b70:	90 48       	sbci	r25, 0x80	; 128
    1b72:	04 c0       	rjmp	.+8      	; 0x1b7c <__fixunssfsi+0x42>
    1b74:	c8 01       	movw	r24, r16
    1b76:	b7 01       	movw	r22, r14
    1b78:	0e 94 bd 11 	call	0x237a	; 0x237a <__fixsfsi>
    1b7c:	1f 91       	pop	r17
    1b7e:	0f 91       	pop	r16
    1b80:	ff 90       	pop	r15
    1b82:	ef 90       	pop	r14
    1b84:	08 95       	ret

00001b86 <_fpadd_parts>:
    1b86:	a0 e0       	ldi	r26, 0x00	; 0
    1b88:	b0 e0       	ldi	r27, 0x00	; 0
    1b8a:	e9 ec       	ldi	r30, 0xC9	; 201
    1b8c:	fd e0       	ldi	r31, 0x0D	; 13
    1b8e:	0c 94 78 14 	jmp	0x28f0	; 0x28f0 <__prologue_saves__+0x4>
    1b92:	2c 01       	movw	r4, r24
    1b94:	5b 01       	movw	r10, r22
    1b96:	fa 01       	movw	r30, r20
    1b98:	dc 01       	movw	r26, r24
    1b9a:	9c 91       	ld	r25, X
    1b9c:	92 30       	cpi	r25, 0x02	; 2
    1b9e:	08 f4       	brcc	.+2      	; 0x1ba2 <_fpadd_parts+0x1c>
    1ba0:	32 c1       	rjmp	.+612    	; 0x1e06 <_fpadd_parts+0x280>
    1ba2:	eb 01       	movw	r28, r22
    1ba4:	88 81       	ld	r24, Y
    1ba6:	82 30       	cpi	r24, 0x02	; 2
    1ba8:	08 f4       	brcc	.+2      	; 0x1bac <_fpadd_parts+0x26>
    1baa:	2c c1       	rjmp	.+600    	; 0x1e04 <_fpadd_parts+0x27e>
    1bac:	94 30       	cpi	r25, 0x04	; 4
    1bae:	71 f4       	brne	.+28     	; 0x1bcc <_fpadd_parts+0x46>
    1bb0:	84 30       	cpi	r24, 0x04	; 4
    1bb2:	09 f0       	breq	.+2      	; 0x1bb6 <_fpadd_parts+0x30>
    1bb4:	28 c1       	rjmp	.+592    	; 0x1e06 <_fpadd_parts+0x280>
    1bb6:	f2 01       	movw	r30, r4
    1bb8:	91 81       	ldd	r25, Z+1	; 0x01
    1bba:	89 81       	ldd	r24, Y+1	; 0x01
    1bbc:	98 17       	cp	r25, r24
    1bbe:	09 f4       	brne	.+2      	; 0x1bc2 <_fpadd_parts+0x3c>
    1bc0:	22 c1       	rjmp	.+580    	; 0x1e06 <_fpadd_parts+0x280>
    1bc2:	10 e0       	ldi	r17, 0x00	; 0
    1bc4:	41 2e       	mov	r4, r17
    1bc6:	12 e0       	ldi	r17, 0x02	; 2
    1bc8:	51 2e       	mov	r5, r17
    1bca:	1d c1       	rjmp	.+570    	; 0x1e06 <_fpadd_parts+0x280>
    1bcc:	84 30       	cpi	r24, 0x04	; 4
    1bce:	09 f4       	brne	.+2      	; 0x1bd2 <_fpadd_parts+0x4c>
    1bd0:	19 c1       	rjmp	.+562    	; 0x1e04 <_fpadd_parts+0x27e>
    1bd2:	82 30       	cpi	r24, 0x02	; 2
    1bd4:	a9 f4       	brne	.+42     	; 0x1c00 <_fpadd_parts+0x7a>
    1bd6:	92 30       	cpi	r25, 0x02	; 2
    1bd8:	09 f0       	breq	.+2      	; 0x1bdc <_fpadd_parts+0x56>
    1bda:	15 c1       	rjmp	.+554    	; 0x1e06 <_fpadd_parts+0x280>
    1bdc:	ca 01       	movw	r24, r20
    1bde:	a2 01       	movw	r20, r4
    1be0:	28 e0       	ldi	r18, 0x08	; 8
    1be2:	da 01       	movw	r26, r20
    1be4:	0d 90       	ld	r0, X+
    1be6:	ad 01       	movw	r20, r26
    1be8:	ec 01       	movw	r28, r24
    1bea:	09 92       	st	Y+, r0
    1bec:	ce 01       	movw	r24, r28
    1bee:	21 50       	subi	r18, 0x01	; 1
    1bf0:	c1 f7       	brne	.-16     	; 0x1be2 <_fpadd_parts+0x5c>
    1bf2:	e5 01       	movw	r28, r10
    1bf4:	89 81       	ldd	r24, Y+1	; 0x01
    1bf6:	e2 01       	movw	r28, r4
    1bf8:	99 81       	ldd	r25, Y+1	; 0x01
    1bfa:	89 23       	and	r24, r25
    1bfc:	81 83       	std	Z+1, r24	; 0x01
    1bfe:	00 c1       	rjmp	.+512    	; 0x1e00 <_fpadd_parts+0x27a>
    1c00:	92 30       	cpi	r25, 0x02	; 2
    1c02:	09 f4       	brne	.+2      	; 0x1c06 <_fpadd_parts+0x80>
    1c04:	ff c0       	rjmp	.+510    	; 0x1e04 <_fpadd_parts+0x27e>
    1c06:	e2 01       	movw	r28, r4
    1c08:	ca 80       	ldd	r12, Y+2	; 0x02
    1c0a:	db 80       	ldd	r13, Y+3	; 0x03
    1c0c:	eb 01       	movw	r28, r22
    1c0e:	8a 81       	ldd	r24, Y+2	; 0x02
    1c10:	9b 81       	ldd	r25, Y+3	; 0x03
    1c12:	e2 01       	movw	r28, r4
    1c14:	2c 81       	ldd	r18, Y+4	; 0x04
    1c16:	3d 81       	ldd	r19, Y+5	; 0x05
    1c18:	4e 81       	ldd	r20, Y+6	; 0x06
    1c1a:	5f 81       	ldd	r21, Y+7	; 0x07
    1c1c:	eb 01       	movw	r28, r22
    1c1e:	ec 80       	ldd	r14, Y+4	; 0x04
    1c20:	fd 80       	ldd	r15, Y+5	; 0x05
    1c22:	0e 81       	ldd	r16, Y+6	; 0x06
    1c24:	1f 81       	ldd	r17, Y+7	; 0x07
    1c26:	b6 01       	movw	r22, r12
    1c28:	68 1b       	sub	r22, r24
    1c2a:	79 0b       	sbc	r23, r25
    1c2c:	db 01       	movw	r26, r22
    1c2e:	77 ff       	sbrs	r23, 7
    1c30:	03 c0       	rjmp	.+6      	; 0x1c38 <_fpadd_parts+0xb2>
    1c32:	70 95       	com	r23
    1c34:	61 95       	neg	r22
    1c36:	7f 4f       	sbci	r23, 0xFF	; 255
    1c38:	60 32       	cpi	r22, 0x20	; 32
    1c3a:	71 05       	cpc	r23, r1
    1c3c:	0c f0       	brlt	.+2      	; 0x1c40 <_fpadd_parts+0xba>
    1c3e:	5d c0       	rjmp	.+186    	; 0x1cfa <_fpadd_parts+0x174>
    1c40:	1a 16       	cp	r1, r26
    1c42:	1b 06       	cpc	r1, r27
    1c44:	5c f5       	brge	.+86     	; 0x1c9c <_fpadd_parts+0x116>
    1c46:	66 24       	eor	r6, r6
    1c48:	77 24       	eor	r7, r7
    1c4a:	43 01       	movw	r8, r6
    1c4c:	81 e0       	ldi	r24, 0x01	; 1
    1c4e:	90 e0       	ldi	r25, 0x00	; 0
    1c50:	a0 e0       	ldi	r26, 0x00	; 0
    1c52:	b0 e0       	ldi	r27, 0x00	; 0
    1c54:	06 2e       	mov	r0, r22
    1c56:	04 c0       	rjmp	.+8      	; 0x1c60 <_fpadd_parts+0xda>
    1c58:	88 0f       	add	r24, r24
    1c5a:	99 1f       	adc	r25, r25
    1c5c:	aa 1f       	adc	r26, r26
    1c5e:	bb 1f       	adc	r27, r27
    1c60:	0a 94       	dec	r0
    1c62:	d2 f7       	brpl	.-12     	; 0x1c58 <_fpadd_parts+0xd2>
    1c64:	01 97       	sbiw	r24, 0x01	; 1
    1c66:	a1 09       	sbc	r26, r1
    1c68:	b1 09       	sbc	r27, r1
    1c6a:	8e 21       	and	r24, r14
    1c6c:	9f 21       	and	r25, r15
    1c6e:	a0 23       	and	r26, r16
    1c70:	b1 23       	and	r27, r17
    1c72:	00 97       	sbiw	r24, 0x00	; 0
    1c74:	a1 05       	cpc	r26, r1
    1c76:	b1 05       	cpc	r27, r1
    1c78:	29 f0       	breq	.+10     	; 0x1c84 <_fpadd_parts+0xfe>
    1c7a:	b1 e0       	ldi	r27, 0x01	; 1
    1c7c:	6b 2e       	mov	r6, r27
    1c7e:	71 2c       	mov	r7, r1
    1c80:	81 2c       	mov	r8, r1
    1c82:	91 2c       	mov	r9, r1
    1c84:	04 c0       	rjmp	.+8      	; 0x1c8e <_fpadd_parts+0x108>
    1c86:	16 95       	lsr	r17
    1c88:	07 95       	ror	r16
    1c8a:	f7 94       	ror	r15
    1c8c:	e7 94       	ror	r14
    1c8e:	6a 95       	dec	r22
    1c90:	d2 f7       	brpl	.-12     	; 0x1c86 <_fpadd_parts+0x100>
    1c92:	e6 28       	or	r14, r6
    1c94:	f7 28       	or	r15, r7
    1c96:	08 29       	or	r16, r8
    1c98:	19 29       	or	r17, r9
    1c9a:	3b c0       	rjmp	.+118    	; 0x1d12 <_fpadd_parts+0x18c>
    1c9c:	ab 2b       	or	r26, r27
    1c9e:	c9 f1       	breq	.+114    	; 0x1d12 <_fpadd_parts+0x18c>
    1ca0:	c6 0e       	add	r12, r22
    1ca2:	d7 1e       	adc	r13, r23
    1ca4:	66 24       	eor	r6, r6
    1ca6:	77 24       	eor	r7, r7
    1ca8:	43 01       	movw	r8, r6
    1caa:	81 e0       	ldi	r24, 0x01	; 1
    1cac:	90 e0       	ldi	r25, 0x00	; 0
    1cae:	a0 e0       	ldi	r26, 0x00	; 0
    1cb0:	b0 e0       	ldi	r27, 0x00	; 0
    1cb2:	06 2e       	mov	r0, r22
    1cb4:	04 c0       	rjmp	.+8      	; 0x1cbe <_fpadd_parts+0x138>
    1cb6:	88 0f       	add	r24, r24
    1cb8:	99 1f       	adc	r25, r25
    1cba:	aa 1f       	adc	r26, r26
    1cbc:	bb 1f       	adc	r27, r27
    1cbe:	0a 94       	dec	r0
    1cc0:	d2 f7       	brpl	.-12     	; 0x1cb6 <_fpadd_parts+0x130>
    1cc2:	01 97       	sbiw	r24, 0x01	; 1
    1cc4:	a1 09       	sbc	r26, r1
    1cc6:	b1 09       	sbc	r27, r1
    1cc8:	82 23       	and	r24, r18
    1cca:	93 23       	and	r25, r19
    1ccc:	a4 23       	and	r26, r20
    1cce:	b5 23       	and	r27, r21
    1cd0:	00 97       	sbiw	r24, 0x00	; 0
    1cd2:	a1 05       	cpc	r26, r1
    1cd4:	b1 05       	cpc	r27, r1
    1cd6:	29 f0       	breq	.+10     	; 0x1ce2 <_fpadd_parts+0x15c>
    1cd8:	a1 e0       	ldi	r26, 0x01	; 1
    1cda:	6a 2e       	mov	r6, r26
    1cdc:	71 2c       	mov	r7, r1
    1cde:	81 2c       	mov	r8, r1
    1ce0:	91 2c       	mov	r9, r1
    1ce2:	04 c0       	rjmp	.+8      	; 0x1cec <_fpadd_parts+0x166>
    1ce4:	56 95       	lsr	r21
    1ce6:	47 95       	ror	r20
    1ce8:	37 95       	ror	r19
    1cea:	27 95       	ror	r18
    1cec:	6a 95       	dec	r22
    1cee:	d2 f7       	brpl	.-12     	; 0x1ce4 <_fpadd_parts+0x15e>
    1cf0:	26 29       	or	r18, r6
    1cf2:	37 29       	or	r19, r7
    1cf4:	48 29       	or	r20, r8
    1cf6:	59 29       	or	r21, r9
    1cf8:	0c c0       	rjmp	.+24     	; 0x1d12 <_fpadd_parts+0x18c>
    1cfa:	8c 15       	cp	r24, r12
    1cfc:	9d 05       	cpc	r25, r13
    1cfe:	34 f0       	brlt	.+12     	; 0x1d0c <_fpadd_parts+0x186>
    1d00:	6c 01       	movw	r12, r24
    1d02:	20 e0       	ldi	r18, 0x00	; 0
    1d04:	30 e0       	ldi	r19, 0x00	; 0
    1d06:	40 e0       	ldi	r20, 0x00	; 0
    1d08:	50 e0       	ldi	r21, 0x00	; 0
    1d0a:	03 c0       	rjmp	.+6      	; 0x1d12 <_fpadd_parts+0x18c>
    1d0c:	ee 24       	eor	r14, r14
    1d0e:	ff 24       	eor	r15, r15
    1d10:	87 01       	movw	r16, r14
    1d12:	e2 01       	movw	r28, r4
    1d14:	99 81       	ldd	r25, Y+1	; 0x01
    1d16:	e5 01       	movw	r28, r10
    1d18:	89 81       	ldd	r24, Y+1	; 0x01
    1d1a:	98 17       	cp	r25, r24
    1d1c:	09 f4       	brne	.+2      	; 0x1d20 <_fpadd_parts+0x19a>
    1d1e:	43 c0       	rjmp	.+134    	; 0x1da6 <_fpadd_parts+0x220>
    1d20:	99 23       	and	r25, r25
    1d22:	39 f0       	breq	.+14     	; 0x1d32 <_fpadd_parts+0x1ac>
    1d24:	e2 1a       	sub	r14, r18
    1d26:	f3 0a       	sbc	r15, r19
    1d28:	04 0b       	sbc	r16, r20
    1d2a:	15 0b       	sbc	r17, r21
    1d2c:	a8 01       	movw	r20, r16
    1d2e:	97 01       	movw	r18, r14
    1d30:	04 c0       	rjmp	.+8      	; 0x1d3a <_fpadd_parts+0x1b4>
    1d32:	2e 19       	sub	r18, r14
    1d34:	3f 09       	sbc	r19, r15
    1d36:	40 0b       	sbc	r20, r16
    1d38:	51 0b       	sbc	r21, r17
    1d3a:	57 fd       	sbrc	r21, 7
    1d3c:	08 c0       	rjmp	.+16     	; 0x1d4e <_fpadd_parts+0x1c8>
    1d3e:	11 82       	std	Z+1, r1	; 0x01
    1d40:	d3 82       	std	Z+3, r13	; 0x03
    1d42:	c2 82       	std	Z+2, r12	; 0x02
    1d44:	24 83       	std	Z+4, r18	; 0x04
    1d46:	35 83       	std	Z+5, r19	; 0x05
    1d48:	46 83       	std	Z+6, r20	; 0x06
    1d4a:	57 83       	std	Z+7, r21	; 0x07
    1d4c:	1d c0       	rjmp	.+58     	; 0x1d88 <_fpadd_parts+0x202>
    1d4e:	81 e0       	ldi	r24, 0x01	; 1
    1d50:	81 83       	std	Z+1, r24	; 0x01
    1d52:	d3 82       	std	Z+3, r13	; 0x03
    1d54:	c2 82       	std	Z+2, r12	; 0x02
    1d56:	88 27       	eor	r24, r24
    1d58:	99 27       	eor	r25, r25
    1d5a:	dc 01       	movw	r26, r24
    1d5c:	82 1b       	sub	r24, r18
    1d5e:	93 0b       	sbc	r25, r19
    1d60:	a4 0b       	sbc	r26, r20
    1d62:	b5 0b       	sbc	r27, r21
    1d64:	84 83       	std	Z+4, r24	; 0x04
    1d66:	95 83       	std	Z+5, r25	; 0x05
    1d68:	a6 83       	std	Z+6, r26	; 0x06
    1d6a:	b7 83       	std	Z+7, r27	; 0x07
    1d6c:	0d c0       	rjmp	.+26     	; 0x1d88 <_fpadd_parts+0x202>
    1d6e:	22 0f       	add	r18, r18
    1d70:	33 1f       	adc	r19, r19
    1d72:	44 1f       	adc	r20, r20
    1d74:	55 1f       	adc	r21, r21
    1d76:	24 83       	std	Z+4, r18	; 0x04
    1d78:	35 83       	std	Z+5, r19	; 0x05
    1d7a:	46 83       	std	Z+6, r20	; 0x06
    1d7c:	57 83       	std	Z+7, r21	; 0x07
    1d7e:	82 81       	ldd	r24, Z+2	; 0x02
    1d80:	93 81       	ldd	r25, Z+3	; 0x03
    1d82:	01 97       	sbiw	r24, 0x01	; 1
    1d84:	93 83       	std	Z+3, r25	; 0x03
    1d86:	82 83       	std	Z+2, r24	; 0x02
    1d88:	24 81       	ldd	r18, Z+4	; 0x04
    1d8a:	35 81       	ldd	r19, Z+5	; 0x05
    1d8c:	46 81       	ldd	r20, Z+6	; 0x06
    1d8e:	57 81       	ldd	r21, Z+7	; 0x07
    1d90:	da 01       	movw	r26, r20
    1d92:	c9 01       	movw	r24, r18
    1d94:	01 97       	sbiw	r24, 0x01	; 1
    1d96:	a1 09       	sbc	r26, r1
    1d98:	b1 09       	sbc	r27, r1
    1d9a:	8f 5f       	subi	r24, 0xFF	; 255
    1d9c:	9f 4f       	sbci	r25, 0xFF	; 255
    1d9e:	af 4f       	sbci	r26, 0xFF	; 255
    1da0:	bf 43       	sbci	r27, 0x3F	; 63
    1da2:	28 f3       	brcs	.-54     	; 0x1d6e <_fpadd_parts+0x1e8>
    1da4:	0b c0       	rjmp	.+22     	; 0x1dbc <_fpadd_parts+0x236>
    1da6:	91 83       	std	Z+1, r25	; 0x01
    1da8:	d3 82       	std	Z+3, r13	; 0x03
    1daa:	c2 82       	std	Z+2, r12	; 0x02
    1dac:	2e 0d       	add	r18, r14
    1dae:	3f 1d       	adc	r19, r15
    1db0:	40 1f       	adc	r20, r16
    1db2:	51 1f       	adc	r21, r17
    1db4:	24 83       	std	Z+4, r18	; 0x04
    1db6:	35 83       	std	Z+5, r19	; 0x05
    1db8:	46 83       	std	Z+6, r20	; 0x06
    1dba:	57 83       	std	Z+7, r21	; 0x07
    1dbc:	83 e0       	ldi	r24, 0x03	; 3
    1dbe:	80 83       	st	Z, r24
    1dc0:	24 81       	ldd	r18, Z+4	; 0x04
    1dc2:	35 81       	ldd	r19, Z+5	; 0x05
    1dc4:	46 81       	ldd	r20, Z+6	; 0x06
    1dc6:	57 81       	ldd	r21, Z+7	; 0x07
    1dc8:	55 23       	and	r21, r21
    1dca:	d4 f4       	brge	.+52     	; 0x1e00 <_fpadd_parts+0x27a>
    1dcc:	c9 01       	movw	r24, r18
    1dce:	aa 27       	eor	r26, r26
    1dd0:	97 fd       	sbrc	r25, 7
    1dd2:	a0 95       	com	r26
    1dd4:	ba 2f       	mov	r27, r26
    1dd6:	81 70       	andi	r24, 0x01	; 1
    1dd8:	90 70       	andi	r25, 0x00	; 0
    1dda:	a0 70       	andi	r26, 0x00	; 0
    1ddc:	b0 70       	andi	r27, 0x00	; 0
    1dde:	56 95       	lsr	r21
    1de0:	47 95       	ror	r20
    1de2:	37 95       	ror	r19
    1de4:	27 95       	ror	r18
    1de6:	82 2b       	or	r24, r18
    1de8:	93 2b       	or	r25, r19
    1dea:	a4 2b       	or	r26, r20
    1dec:	b5 2b       	or	r27, r21
    1dee:	84 83       	std	Z+4, r24	; 0x04
    1df0:	95 83       	std	Z+5, r25	; 0x05
    1df2:	a6 83       	std	Z+6, r26	; 0x06
    1df4:	b7 83       	std	Z+7, r27	; 0x07
    1df6:	82 81       	ldd	r24, Z+2	; 0x02
    1df8:	93 81       	ldd	r25, Z+3	; 0x03
    1dfa:	01 96       	adiw	r24, 0x01	; 1
    1dfc:	93 83       	std	Z+3, r25	; 0x03
    1dfe:	82 83       	std	Z+2, r24	; 0x02
    1e00:	2f 01       	movw	r4, r30
    1e02:	01 c0       	rjmp	.+2      	; 0x1e06 <_fpadd_parts+0x280>
    1e04:	25 01       	movw	r4, r10
    1e06:	c2 01       	movw	r24, r4
    1e08:	e0 e1       	ldi	r30, 0x10	; 16
    1e0a:	cd b7       	in	r28, 0x3d	; 61
    1e0c:	de b7       	in	r29, 0x3e	; 62
    1e0e:	0c 94 94 14 	jmp	0x2928	; 0x2928 <__epilogue_restores__+0x4>

00001e12 <__subsf3>:
    1e12:	a0 e2       	ldi	r26, 0x20	; 32
    1e14:	b0 e0       	ldi	r27, 0x00	; 0
    1e16:	ef e0       	ldi	r30, 0x0F	; 15
    1e18:	ff e0       	ldi	r31, 0x0F	; 15
    1e1a:	0c 94 82 14 	jmp	0x2904	; 0x2904 <__prologue_saves__+0x18>
    1e1e:	69 83       	std	Y+1, r22	; 0x01
    1e20:	7a 83       	std	Y+2, r23	; 0x02
    1e22:	8b 83       	std	Y+3, r24	; 0x03
    1e24:	9c 83       	std	Y+4, r25	; 0x04
    1e26:	2d 83       	std	Y+5, r18	; 0x05
    1e28:	3e 83       	std	Y+6, r19	; 0x06
    1e2a:	4f 83       	std	Y+7, r20	; 0x07
    1e2c:	58 87       	std	Y+8, r21	; 0x08
    1e2e:	09 e0       	ldi	r16, 0x09	; 9
    1e30:	e0 2e       	mov	r14, r16
    1e32:	f1 2c       	mov	r15, r1
    1e34:	ec 0e       	add	r14, r28
    1e36:	fd 1e       	adc	r15, r29
    1e38:	b7 01       	movw	r22, r14
    1e3a:	ce 01       	movw	r24, r28
    1e3c:	01 96       	adiw	r24, 0x01	; 1
    1e3e:	0e 94 b0 13 	call	0x2760	; 0x2760 <__unpack_f>
    1e42:	8e 01       	movw	r16, r28
    1e44:	0f 5e       	subi	r16, 0xEF	; 239
    1e46:	1f 4f       	sbci	r17, 0xFF	; 255
    1e48:	b8 01       	movw	r22, r16
    1e4a:	ce 01       	movw	r24, r28
    1e4c:	05 96       	adiw	r24, 0x05	; 5
    1e4e:	0e 94 b0 13 	call	0x2760	; 0x2760 <__unpack_f>
    1e52:	8a 89       	ldd	r24, Y+18	; 0x12
    1e54:	91 e0       	ldi	r25, 0x01	; 1
    1e56:	89 27       	eor	r24, r25
    1e58:	8a 8b       	std	Y+18, r24	; 0x12
    1e5a:	ae 01       	movw	r20, r28
    1e5c:	47 5e       	subi	r20, 0xE7	; 231
    1e5e:	5f 4f       	sbci	r21, 0xFF	; 255
    1e60:	b8 01       	movw	r22, r16
    1e62:	c7 01       	movw	r24, r14
    1e64:	0e 94 c3 0d 	call	0x1b86	; 0x1b86 <_fpadd_parts>
    1e68:	0e 94 d0 12 	call	0x25a0	; 0x25a0 <__pack_f>
    1e6c:	e6 e0       	ldi	r30, 0x06	; 6
    1e6e:	a0 96       	adiw	r28, 0x20	; 32
    1e70:	0c 94 9e 14 	jmp	0x293c	; 0x293c <__epilogue_restores__+0x18>

00001e74 <__addsf3>:
    1e74:	a0 e2       	ldi	r26, 0x20	; 32
    1e76:	b0 e0       	ldi	r27, 0x00	; 0
    1e78:	e0 e4       	ldi	r30, 0x40	; 64
    1e7a:	ff e0       	ldi	r31, 0x0F	; 15
    1e7c:	0c 94 82 14 	jmp	0x2904	; 0x2904 <__prologue_saves__+0x18>
    1e80:	69 83       	std	Y+1, r22	; 0x01
    1e82:	7a 83       	std	Y+2, r23	; 0x02
    1e84:	8b 83       	std	Y+3, r24	; 0x03
    1e86:	9c 83       	std	Y+4, r25	; 0x04
    1e88:	2d 83       	std	Y+5, r18	; 0x05
    1e8a:	3e 83       	std	Y+6, r19	; 0x06
    1e8c:	4f 83       	std	Y+7, r20	; 0x07
    1e8e:	58 87       	std	Y+8, r21	; 0x08
    1e90:	89 e0       	ldi	r24, 0x09	; 9
    1e92:	e8 2e       	mov	r14, r24
    1e94:	f1 2c       	mov	r15, r1
    1e96:	ec 0e       	add	r14, r28
    1e98:	fd 1e       	adc	r15, r29
    1e9a:	b7 01       	movw	r22, r14
    1e9c:	ce 01       	movw	r24, r28
    1e9e:	01 96       	adiw	r24, 0x01	; 1
    1ea0:	0e 94 b0 13 	call	0x2760	; 0x2760 <__unpack_f>
    1ea4:	8e 01       	movw	r16, r28
    1ea6:	0f 5e       	subi	r16, 0xEF	; 239
    1ea8:	1f 4f       	sbci	r17, 0xFF	; 255
    1eaa:	b8 01       	movw	r22, r16
    1eac:	ce 01       	movw	r24, r28
    1eae:	05 96       	adiw	r24, 0x05	; 5
    1eb0:	0e 94 b0 13 	call	0x2760	; 0x2760 <__unpack_f>
    1eb4:	ae 01       	movw	r20, r28
    1eb6:	47 5e       	subi	r20, 0xE7	; 231
    1eb8:	5f 4f       	sbci	r21, 0xFF	; 255
    1eba:	b8 01       	movw	r22, r16
    1ebc:	c7 01       	movw	r24, r14
    1ebe:	0e 94 c3 0d 	call	0x1b86	; 0x1b86 <_fpadd_parts>
    1ec2:	0e 94 d0 12 	call	0x25a0	; 0x25a0 <__pack_f>
    1ec6:	e6 e0       	ldi	r30, 0x06	; 6
    1ec8:	a0 96       	adiw	r28, 0x20	; 32
    1eca:	0c 94 9e 14 	jmp	0x293c	; 0x293c <__epilogue_restores__+0x18>

00001ece <__mulsf3>:
    1ece:	a0 e2       	ldi	r26, 0x20	; 32
    1ed0:	b0 e0       	ldi	r27, 0x00	; 0
    1ed2:	ed e6       	ldi	r30, 0x6D	; 109
    1ed4:	ff e0       	ldi	r31, 0x0F	; 15
    1ed6:	0c 94 78 14 	jmp	0x28f0	; 0x28f0 <__prologue_saves__+0x4>
    1eda:	69 83       	std	Y+1, r22	; 0x01
    1edc:	7a 83       	std	Y+2, r23	; 0x02
    1ede:	8b 83       	std	Y+3, r24	; 0x03
    1ee0:	9c 83       	std	Y+4, r25	; 0x04
    1ee2:	2d 83       	std	Y+5, r18	; 0x05
    1ee4:	3e 83       	std	Y+6, r19	; 0x06
    1ee6:	4f 83       	std	Y+7, r20	; 0x07
    1ee8:	58 87       	std	Y+8, r21	; 0x08
    1eea:	99 e0       	ldi	r25, 0x09	; 9
    1eec:	e9 2e       	mov	r14, r25
    1eee:	f1 2c       	mov	r15, r1
    1ef0:	ec 0e       	add	r14, r28
    1ef2:	fd 1e       	adc	r15, r29
    1ef4:	b7 01       	movw	r22, r14
    1ef6:	ce 01       	movw	r24, r28
    1ef8:	01 96       	adiw	r24, 0x01	; 1
    1efa:	0e 94 b0 13 	call	0x2760	; 0x2760 <__unpack_f>
    1efe:	8e 01       	movw	r16, r28
    1f00:	0f 5e       	subi	r16, 0xEF	; 239
    1f02:	1f 4f       	sbci	r17, 0xFF	; 255
    1f04:	b8 01       	movw	r22, r16
    1f06:	ce 01       	movw	r24, r28
    1f08:	05 96       	adiw	r24, 0x05	; 5
    1f0a:	0e 94 b0 13 	call	0x2760	; 0x2760 <__unpack_f>
    1f0e:	99 85       	ldd	r25, Y+9	; 0x09
    1f10:	92 30       	cpi	r25, 0x02	; 2
    1f12:	88 f0       	brcs	.+34     	; 0x1f36 <__mulsf3+0x68>
    1f14:	89 89       	ldd	r24, Y+17	; 0x11
    1f16:	82 30       	cpi	r24, 0x02	; 2
    1f18:	c0 f0       	brcs	.+48     	; 0x1f4a <__mulsf3+0x7c>
    1f1a:	94 30       	cpi	r25, 0x04	; 4
    1f1c:	19 f4       	brne	.+6      	; 0x1f24 <__mulsf3+0x56>
    1f1e:	82 30       	cpi	r24, 0x02	; 2
    1f20:	29 f0       	breq	.+10     	; 0x1f2c <__mulsf3+0x5e>
    1f22:	09 c0       	rjmp	.+18     	; 0x1f36 <__mulsf3+0x68>
    1f24:	84 30       	cpi	r24, 0x04	; 4
    1f26:	29 f4       	brne	.+10     	; 0x1f32 <__mulsf3+0x64>
    1f28:	92 30       	cpi	r25, 0x02	; 2
    1f2a:	79 f4       	brne	.+30     	; 0x1f4a <__mulsf3+0x7c>
    1f2c:	60 e0       	ldi	r22, 0x00	; 0
    1f2e:	72 e0       	ldi	r23, 0x02	; 2
    1f30:	c6 c0       	rjmp	.+396    	; 0x20be <__mulsf3+0x1f0>
    1f32:	92 30       	cpi	r25, 0x02	; 2
    1f34:	41 f4       	brne	.+16     	; 0x1f46 <__mulsf3+0x78>
    1f36:	20 e0       	ldi	r18, 0x00	; 0
    1f38:	9a 85       	ldd	r25, Y+10	; 0x0a
    1f3a:	8a 89       	ldd	r24, Y+18	; 0x12
    1f3c:	98 13       	cpse	r25, r24
    1f3e:	21 e0       	ldi	r18, 0x01	; 1
    1f40:	2a 87       	std	Y+10, r18	; 0x0a
    1f42:	b7 01       	movw	r22, r14
    1f44:	bc c0       	rjmp	.+376    	; 0x20be <__mulsf3+0x1f0>
    1f46:	82 30       	cpi	r24, 0x02	; 2
    1f48:	41 f4       	brne	.+16     	; 0x1f5a <__mulsf3+0x8c>
    1f4a:	20 e0       	ldi	r18, 0x00	; 0
    1f4c:	9a 85       	ldd	r25, Y+10	; 0x0a
    1f4e:	8a 89       	ldd	r24, Y+18	; 0x12
    1f50:	98 13       	cpse	r25, r24
    1f52:	21 e0       	ldi	r18, 0x01	; 1
    1f54:	2a 8b       	std	Y+18, r18	; 0x12
    1f56:	b8 01       	movw	r22, r16
    1f58:	b2 c0       	rjmp	.+356    	; 0x20be <__mulsf3+0x1f0>
    1f5a:	cd 84       	ldd	r12, Y+13	; 0x0d
    1f5c:	de 84       	ldd	r13, Y+14	; 0x0e
    1f5e:	ef 84       	ldd	r14, Y+15	; 0x0f
    1f60:	f8 88       	ldd	r15, Y+16	; 0x10
    1f62:	0d 89       	ldd	r16, Y+21	; 0x15
    1f64:	1e 89       	ldd	r17, Y+22	; 0x16
    1f66:	2f 89       	ldd	r18, Y+23	; 0x17
    1f68:	38 8d       	ldd	r19, Y+24	; 0x18
    1f6a:	88 24       	eor	r8, r8
    1f6c:	99 24       	eor	r9, r9
    1f6e:	54 01       	movw	r10, r8
    1f70:	40 e0       	ldi	r20, 0x00	; 0
    1f72:	50 e0       	ldi	r21, 0x00	; 0
    1f74:	60 e0       	ldi	r22, 0x00	; 0
    1f76:	70 e0       	ldi	r23, 0x00	; 0
    1f78:	44 24       	eor	r4, r4
    1f7a:	55 24       	eor	r5, r5
    1f7c:	32 01       	movw	r6, r4
    1f7e:	e0 e0       	ldi	r30, 0x00	; 0
    1f80:	f0 e0       	ldi	r31, 0x00	; 0
    1f82:	c6 01       	movw	r24, r12
    1f84:	81 70       	andi	r24, 0x01	; 1
    1f86:	90 70       	andi	r25, 0x00	; 0
    1f88:	89 2b       	or	r24, r25
    1f8a:	d9 f0       	breq	.+54     	; 0x1fc2 <__mulsf3+0xf4>
    1f8c:	80 0e       	add	r8, r16
    1f8e:	91 1e       	adc	r9, r17
    1f90:	a2 1e       	adc	r10, r18
    1f92:	b3 1e       	adc	r11, r19
    1f94:	db 01       	movw	r26, r22
    1f96:	ca 01       	movw	r24, r20
    1f98:	84 0d       	add	r24, r4
    1f9a:	95 1d       	adc	r25, r5
    1f9c:	a6 1d       	adc	r26, r6
    1f9e:	b7 1d       	adc	r27, r7
    1fa0:	40 e0       	ldi	r20, 0x00	; 0
    1fa2:	50 e0       	ldi	r21, 0x00	; 0
    1fa4:	60 e0       	ldi	r22, 0x00	; 0
    1fa6:	70 e0       	ldi	r23, 0x00	; 0
    1fa8:	80 16       	cp	r8, r16
    1faa:	91 06       	cpc	r9, r17
    1fac:	a2 06       	cpc	r10, r18
    1fae:	b3 06       	cpc	r11, r19
    1fb0:	20 f4       	brcc	.+8      	; 0x1fba <__mulsf3+0xec>
    1fb2:	41 e0       	ldi	r20, 0x01	; 1
    1fb4:	50 e0       	ldi	r21, 0x00	; 0
    1fb6:	60 e0       	ldi	r22, 0x00	; 0
    1fb8:	70 e0       	ldi	r23, 0x00	; 0
    1fba:	48 0f       	add	r20, r24
    1fbc:	59 1f       	adc	r21, r25
    1fbe:	6a 1f       	adc	r22, r26
    1fc0:	7b 1f       	adc	r23, r27
    1fc2:	44 0c       	add	r4, r4
    1fc4:	55 1c       	adc	r5, r5
    1fc6:	66 1c       	adc	r6, r6
    1fc8:	77 1c       	adc	r7, r7
    1fca:	37 ff       	sbrs	r19, 7
    1fcc:	08 c0       	rjmp	.+16     	; 0x1fde <__mulsf3+0x110>
    1fce:	81 e0       	ldi	r24, 0x01	; 1
    1fd0:	90 e0       	ldi	r25, 0x00	; 0
    1fd2:	a0 e0       	ldi	r26, 0x00	; 0
    1fd4:	b0 e0       	ldi	r27, 0x00	; 0
    1fd6:	48 2a       	or	r4, r24
    1fd8:	59 2a       	or	r5, r25
    1fda:	6a 2a       	or	r6, r26
    1fdc:	7b 2a       	or	r7, r27
    1fde:	31 96       	adiw	r30, 0x01	; 1
    1fe0:	e0 32       	cpi	r30, 0x20	; 32
    1fe2:	f1 05       	cpc	r31, r1
    1fe4:	49 f0       	breq	.+18     	; 0x1ff8 <__mulsf3+0x12a>
    1fe6:	00 0f       	add	r16, r16
    1fe8:	11 1f       	adc	r17, r17
    1fea:	22 1f       	adc	r18, r18
    1fec:	33 1f       	adc	r19, r19
    1fee:	f6 94       	lsr	r15
    1ff0:	e7 94       	ror	r14
    1ff2:	d7 94       	ror	r13
    1ff4:	c7 94       	ror	r12
    1ff6:	c5 cf       	rjmp	.-118    	; 0x1f82 <__mulsf3+0xb4>
    1ff8:	8b 89       	ldd	r24, Y+19	; 0x13
    1ffa:	9c 89       	ldd	r25, Y+20	; 0x14
    1ffc:	2b 85       	ldd	r18, Y+11	; 0x0b
    1ffe:	3c 85       	ldd	r19, Y+12	; 0x0c
    2000:	82 0f       	add	r24, r18
    2002:	93 1f       	adc	r25, r19
    2004:	02 96       	adiw	r24, 0x02	; 2
    2006:	9c 8f       	std	Y+28, r25	; 0x1c
    2008:	8b 8f       	std	Y+27, r24	; 0x1b
    200a:	1a 8e       	std	Y+26, r1	; 0x1a
    200c:	9a 85       	ldd	r25, Y+10	; 0x0a
    200e:	8a 89       	ldd	r24, Y+18	; 0x12
    2010:	98 17       	cp	r25, r24
    2012:	11 f0       	breq	.+4      	; 0x2018 <__mulsf3+0x14a>
    2014:	81 e0       	ldi	r24, 0x01	; 1
    2016:	8a 8f       	std	Y+26, r24	; 0x1a
    2018:	2b 8d       	ldd	r18, Y+27	; 0x1b
    201a:	3c 8d       	ldd	r19, Y+28	; 0x1c
    201c:	17 c0       	rjmp	.+46     	; 0x204c <__mulsf3+0x17e>
    201e:	ca 01       	movw	r24, r20
    2020:	81 70       	andi	r24, 0x01	; 1
    2022:	90 70       	andi	r25, 0x00	; 0
    2024:	89 2b       	or	r24, r25
    2026:	61 f0       	breq	.+24     	; 0x2040 <__mulsf3+0x172>
    2028:	b6 94       	lsr	r11
    202a:	a7 94       	ror	r10
    202c:	97 94       	ror	r9
    202e:	87 94       	ror	r8
    2030:	80 e0       	ldi	r24, 0x00	; 0
    2032:	90 e0       	ldi	r25, 0x00	; 0
    2034:	a0 e0       	ldi	r26, 0x00	; 0
    2036:	b0 e8       	ldi	r27, 0x80	; 128
    2038:	88 2a       	or	r8, r24
    203a:	99 2a       	or	r9, r25
    203c:	aa 2a       	or	r10, r26
    203e:	bb 2a       	or	r11, r27
    2040:	76 95       	lsr	r23
    2042:	67 95       	ror	r22
    2044:	57 95       	ror	r21
    2046:	47 95       	ror	r20
    2048:	2f 5f       	subi	r18, 0xFF	; 255
    204a:	3f 4f       	sbci	r19, 0xFF	; 255
    204c:	77 fd       	sbrc	r23, 7
    204e:	e7 cf       	rjmp	.-50     	; 0x201e <__mulsf3+0x150>
    2050:	c9 01       	movw	r24, r18
    2052:	0b c0       	rjmp	.+22     	; 0x206a <__mulsf3+0x19c>
    2054:	44 0f       	add	r20, r20
    2056:	55 1f       	adc	r21, r21
    2058:	66 1f       	adc	r22, r22
    205a:	77 1f       	adc	r23, r23
    205c:	b7 fc       	sbrc	r11, 7
    205e:	41 60       	ori	r20, 0x01	; 1
    2060:	88 0c       	add	r8, r8
    2062:	99 1c       	adc	r9, r9
    2064:	aa 1c       	adc	r10, r10
    2066:	bb 1c       	adc	r11, r11
    2068:	01 97       	sbiw	r24, 0x01	; 1
    206a:	40 30       	cpi	r20, 0x00	; 0
    206c:	a0 e0       	ldi	r26, 0x00	; 0
    206e:	5a 07       	cpc	r21, r26
    2070:	a0 e0       	ldi	r26, 0x00	; 0
    2072:	6a 07       	cpc	r22, r26
    2074:	a0 e4       	ldi	r26, 0x40	; 64
    2076:	7a 07       	cpc	r23, r26
    2078:	68 f3       	brcs	.-38     	; 0x2054 <__mulsf3+0x186>
    207a:	9c 8f       	std	Y+28, r25	; 0x1c
    207c:	8b 8f       	std	Y+27, r24	; 0x1b
    207e:	db 01       	movw	r26, r22
    2080:	ca 01       	movw	r24, r20
    2082:	8f 77       	andi	r24, 0x7F	; 127
    2084:	90 70       	andi	r25, 0x00	; 0
    2086:	a0 70       	andi	r26, 0x00	; 0
    2088:	b0 70       	andi	r27, 0x00	; 0
    208a:	80 34       	cpi	r24, 0x40	; 64
    208c:	91 05       	cpc	r25, r1
    208e:	a1 05       	cpc	r26, r1
    2090:	b1 05       	cpc	r27, r1
    2092:	61 f4       	brne	.+24     	; 0x20ac <__mulsf3+0x1de>
    2094:	47 fd       	sbrc	r20, 7
    2096:	0a c0       	rjmp	.+20     	; 0x20ac <__mulsf3+0x1de>
    2098:	81 14       	cp	r8, r1
    209a:	91 04       	cpc	r9, r1
    209c:	a1 04       	cpc	r10, r1
    209e:	b1 04       	cpc	r11, r1
    20a0:	29 f0       	breq	.+10     	; 0x20ac <__mulsf3+0x1de>
    20a2:	40 5c       	subi	r20, 0xC0	; 192
    20a4:	5f 4f       	sbci	r21, 0xFF	; 255
    20a6:	6f 4f       	sbci	r22, 0xFF	; 255
    20a8:	7f 4f       	sbci	r23, 0xFF	; 255
    20aa:	40 78       	andi	r20, 0x80	; 128
    20ac:	4d 8f       	std	Y+29, r20	; 0x1d
    20ae:	5e 8f       	std	Y+30, r21	; 0x1e
    20b0:	6f 8f       	std	Y+31, r22	; 0x1f
    20b2:	78 a3       	std	Y+32, r23	; 0x20
    20b4:	83 e0       	ldi	r24, 0x03	; 3
    20b6:	89 8f       	std	Y+25, r24	; 0x19
    20b8:	be 01       	movw	r22, r28
    20ba:	67 5e       	subi	r22, 0xE7	; 231
    20bc:	7f 4f       	sbci	r23, 0xFF	; 255
    20be:	cb 01       	movw	r24, r22
    20c0:	0e 94 d0 12 	call	0x25a0	; 0x25a0 <__pack_f>
    20c4:	e0 e1       	ldi	r30, 0x10	; 16
    20c6:	a0 96       	adiw	r28, 0x20	; 32
    20c8:	0c 94 94 14 	jmp	0x2928	; 0x2928 <__epilogue_restores__+0x4>

000020cc <__divsf3>:
    20cc:	a8 e1       	ldi	r26, 0x18	; 24
    20ce:	b0 e0       	ldi	r27, 0x00	; 0
    20d0:	ec e6       	ldi	r30, 0x6C	; 108
    20d2:	f0 e1       	ldi	r31, 0x10	; 16
    20d4:	0c 94 7e 14 	jmp	0x28fc	; 0x28fc <__prologue_saves__+0x10>
    20d8:	69 83       	std	Y+1, r22	; 0x01
    20da:	7a 83       	std	Y+2, r23	; 0x02
    20dc:	8b 83       	std	Y+3, r24	; 0x03
    20de:	9c 83       	std	Y+4, r25	; 0x04
    20e0:	2d 83       	std	Y+5, r18	; 0x05
    20e2:	3e 83       	std	Y+6, r19	; 0x06
    20e4:	4f 83       	std	Y+7, r20	; 0x07
    20e6:	58 87       	std	Y+8, r21	; 0x08
    20e8:	8e 01       	movw	r16, r28
    20ea:	07 5f       	subi	r16, 0xF7	; 247
    20ec:	1f 4f       	sbci	r17, 0xFF	; 255
    20ee:	b8 01       	movw	r22, r16
    20f0:	ce 01       	movw	r24, r28
    20f2:	01 96       	adiw	r24, 0x01	; 1
    20f4:	0e 94 b0 13 	call	0x2760	; 0x2760 <__unpack_f>
    20f8:	81 e1       	ldi	r24, 0x11	; 17
    20fa:	e8 2e       	mov	r14, r24
    20fc:	f1 2c       	mov	r15, r1
    20fe:	ec 0e       	add	r14, r28
    2100:	fd 1e       	adc	r15, r29
    2102:	b7 01       	movw	r22, r14
    2104:	ce 01       	movw	r24, r28
    2106:	05 96       	adiw	r24, 0x05	; 5
    2108:	0e 94 b0 13 	call	0x2760	; 0x2760 <__unpack_f>
    210c:	39 85       	ldd	r19, Y+9	; 0x09
    210e:	32 30       	cpi	r19, 0x02	; 2
    2110:	f8 f0       	brcs	.+62     	; 0x2150 <__divsf3+0x84>
    2112:	29 89       	ldd	r18, Y+17	; 0x11
    2114:	22 30       	cpi	r18, 0x02	; 2
    2116:	10 f4       	brcc	.+4      	; 0x211c <__divsf3+0x50>
    2118:	b7 01       	movw	r22, r14
    211a:	86 c0       	rjmp	.+268    	; 0x2228 <__stack+0x29>
    211c:	8a 85       	ldd	r24, Y+10	; 0x0a
    211e:	9a 89       	ldd	r25, Y+18	; 0x12
    2120:	89 27       	eor	r24, r25
    2122:	8a 87       	std	Y+10, r24	; 0x0a
    2124:	34 30       	cpi	r19, 0x04	; 4
    2126:	11 f0       	breq	.+4      	; 0x212c <__divsf3+0x60>
    2128:	32 30       	cpi	r19, 0x02	; 2
    212a:	29 f4       	brne	.+10     	; 0x2136 <__divsf3+0x6a>
    212c:	32 17       	cp	r19, r18
    212e:	81 f4       	brne	.+32     	; 0x2150 <__divsf3+0x84>
    2130:	60 e0       	ldi	r22, 0x00	; 0
    2132:	72 e0       	ldi	r23, 0x02	; 2
    2134:	79 c0       	rjmp	.+242    	; 0x2228 <__stack+0x29>
    2136:	24 30       	cpi	r18, 0x04	; 4
    2138:	39 f4       	brne	.+14     	; 0x2148 <__divsf3+0x7c>
    213a:	1d 86       	std	Y+13, r1	; 0x0d
    213c:	1e 86       	std	Y+14, r1	; 0x0e
    213e:	1f 86       	std	Y+15, r1	; 0x0f
    2140:	18 8a       	std	Y+16, r1	; 0x10
    2142:	1c 86       	std	Y+12, r1	; 0x0c
    2144:	1b 86       	std	Y+11, r1	; 0x0b
    2146:	04 c0       	rjmp	.+8      	; 0x2150 <__divsf3+0x84>
    2148:	22 30       	cpi	r18, 0x02	; 2
    214a:	21 f4       	brne	.+8      	; 0x2154 <__divsf3+0x88>
    214c:	84 e0       	ldi	r24, 0x04	; 4
    214e:	89 87       	std	Y+9, r24	; 0x09
    2150:	b8 01       	movw	r22, r16
    2152:	6a c0       	rjmp	.+212    	; 0x2228 <__stack+0x29>
    2154:	6b 85       	ldd	r22, Y+11	; 0x0b
    2156:	7c 85       	ldd	r23, Y+12	; 0x0c
    2158:	8b 89       	ldd	r24, Y+19	; 0x13
    215a:	9c 89       	ldd	r25, Y+20	; 0x14
    215c:	68 1b       	sub	r22, r24
    215e:	79 0b       	sbc	r23, r25
    2160:	7c 87       	std	Y+12, r23	; 0x0c
    2162:	6b 87       	std	Y+11, r22	; 0x0b
    2164:	2d 85       	ldd	r18, Y+13	; 0x0d
    2166:	3e 85       	ldd	r19, Y+14	; 0x0e
    2168:	4f 85       	ldd	r20, Y+15	; 0x0f
    216a:	58 89       	ldd	r21, Y+16	; 0x10
    216c:	8d 89       	ldd	r24, Y+21	; 0x15
    216e:	9e 89       	ldd	r25, Y+22	; 0x16
    2170:	af 89       	ldd	r26, Y+23	; 0x17
    2172:	b8 8d       	ldd	r27, Y+24	; 0x18
    2174:	28 17       	cp	r18, r24
    2176:	39 07       	cpc	r19, r25
    2178:	4a 07       	cpc	r20, r26
    217a:	5b 07       	cpc	r21, r27
    217c:	40 f4       	brcc	.+16     	; 0x218e <__divsf3+0xc2>
    217e:	22 0f       	add	r18, r18
    2180:	33 1f       	adc	r19, r19
    2182:	44 1f       	adc	r20, r20
    2184:	55 1f       	adc	r21, r21
    2186:	61 50       	subi	r22, 0x01	; 1
    2188:	70 40       	sbci	r23, 0x00	; 0
    218a:	7c 87       	std	Y+12, r23	; 0x0c
    218c:	6b 87       	std	Y+11, r22	; 0x0b
    218e:	a1 2c       	mov	r10, r1
    2190:	b1 2c       	mov	r11, r1
    2192:	c1 2c       	mov	r12, r1
    2194:	10 e4       	ldi	r17, 0x40	; 64
    2196:	d1 2e       	mov	r13, r17
    2198:	ee 24       	eor	r14, r14
    219a:	ff 24       	eor	r15, r15
    219c:	87 01       	movw	r16, r14
    219e:	60 e0       	ldi	r22, 0x00	; 0
    21a0:	70 e0       	ldi	r23, 0x00	; 0
    21a2:	28 17       	cp	r18, r24
    21a4:	39 07       	cpc	r19, r25
    21a6:	4a 07       	cpc	r20, r26
    21a8:	5b 07       	cpc	r21, r27
    21aa:	40 f0       	brcs	.+16     	; 0x21bc <__divsf3+0xf0>
    21ac:	ea 28       	or	r14, r10
    21ae:	fb 28       	or	r15, r11
    21b0:	0c 29       	or	r16, r12
    21b2:	1d 29       	or	r17, r13
    21b4:	28 1b       	sub	r18, r24
    21b6:	39 0b       	sbc	r19, r25
    21b8:	4a 0b       	sbc	r20, r26
    21ba:	5b 0b       	sbc	r21, r27
    21bc:	d6 94       	lsr	r13
    21be:	c7 94       	ror	r12
    21c0:	b7 94       	ror	r11
    21c2:	a7 94       	ror	r10
    21c4:	22 0f       	add	r18, r18
    21c6:	33 1f       	adc	r19, r19
    21c8:	44 1f       	adc	r20, r20
    21ca:	55 1f       	adc	r21, r21
    21cc:	6f 5f       	subi	r22, 0xFF	; 255
    21ce:	7f 4f       	sbci	r23, 0xFF	; 255
    21d0:	6f 31       	cpi	r22, 0x1F	; 31
    21d2:	71 05       	cpc	r23, r1
    21d4:	31 f7       	brne	.-52     	; 0x21a2 <__divsf3+0xd6>
    21d6:	d8 01       	movw	r26, r16
    21d8:	c7 01       	movw	r24, r14
    21da:	8f 77       	andi	r24, 0x7F	; 127
    21dc:	90 70       	andi	r25, 0x00	; 0
    21de:	a0 70       	andi	r26, 0x00	; 0
    21e0:	b0 70       	andi	r27, 0x00	; 0
    21e2:	80 34       	cpi	r24, 0x40	; 64
    21e4:	91 05       	cpc	r25, r1
    21e6:	a1 05       	cpc	r26, r1
    21e8:	b1 05       	cpc	r27, r1
    21ea:	b9 f4       	brne	.+46     	; 0x221a <__stack+0x1b>
    21ec:	e7 fc       	sbrc	r14, 7
    21ee:	15 c0       	rjmp	.+42     	; 0x221a <__stack+0x1b>
    21f0:	21 15       	cp	r18, r1
    21f2:	31 05       	cpc	r19, r1
    21f4:	41 05       	cpc	r20, r1
    21f6:	51 05       	cpc	r21, r1
    21f8:	81 f0       	breq	.+32     	; 0x221a <__stack+0x1b>
    21fa:	80 e4       	ldi	r24, 0x40	; 64
    21fc:	90 e0       	ldi	r25, 0x00	; 0
    21fe:	a0 e0       	ldi	r26, 0x00	; 0
    2200:	b0 e0       	ldi	r27, 0x00	; 0
    2202:	e8 0e       	add	r14, r24
    2204:	f9 1e       	adc	r15, r25
    2206:	0a 1f       	adc	r16, r26
    2208:	1b 1f       	adc	r17, r27
    220a:	80 e8       	ldi	r24, 0x80	; 128
    220c:	9f ef       	ldi	r25, 0xFF	; 255
    220e:	af ef       	ldi	r26, 0xFF	; 255
    2210:	bf ef       	ldi	r27, 0xFF	; 255
    2212:	e8 22       	and	r14, r24
    2214:	f9 22       	and	r15, r25
    2216:	0a 23       	and	r16, r26
    2218:	1b 23       	and	r17, r27
    221a:	ed 86       	std	Y+13, r14	; 0x0d
    221c:	fe 86       	std	Y+14, r15	; 0x0e
    221e:	0f 87       	std	Y+15, r16	; 0x0f
    2220:	18 8b       	std	Y+16, r17	; 0x10
    2222:	be 01       	movw	r22, r28
    2224:	67 5f       	subi	r22, 0xF7	; 247
    2226:	7f 4f       	sbci	r23, 0xFF	; 255
    2228:	cb 01       	movw	r24, r22
    222a:	0e 94 d0 12 	call	0x25a0	; 0x25a0 <__pack_f>
    222e:	ea e0       	ldi	r30, 0x0A	; 10
    2230:	68 96       	adiw	r28, 0x18	; 24
    2232:	0c 94 9a 14 	jmp	0x2934	; 0x2934 <__epilogue_restores__+0x10>

00002236 <__gtsf2>:
    2236:	a8 e1       	ldi	r26, 0x18	; 24
    2238:	b0 e0       	ldi	r27, 0x00	; 0
    223a:	e1 e2       	ldi	r30, 0x21	; 33
    223c:	f1 e1       	ldi	r31, 0x11	; 17
    223e:	0c 94 82 14 	jmp	0x2904	; 0x2904 <__prologue_saves__+0x18>
    2242:	69 83       	std	Y+1, r22	; 0x01
    2244:	7a 83       	std	Y+2, r23	; 0x02
    2246:	8b 83       	std	Y+3, r24	; 0x03
    2248:	9c 83       	std	Y+4, r25	; 0x04
    224a:	2d 83       	std	Y+5, r18	; 0x05
    224c:	3e 83       	std	Y+6, r19	; 0x06
    224e:	4f 83       	std	Y+7, r20	; 0x07
    2250:	58 87       	std	Y+8, r21	; 0x08
    2252:	89 e0       	ldi	r24, 0x09	; 9
    2254:	e8 2e       	mov	r14, r24
    2256:	f1 2c       	mov	r15, r1
    2258:	ec 0e       	add	r14, r28
    225a:	fd 1e       	adc	r15, r29
    225c:	b7 01       	movw	r22, r14
    225e:	ce 01       	movw	r24, r28
    2260:	01 96       	adiw	r24, 0x01	; 1
    2262:	0e 94 b0 13 	call	0x2760	; 0x2760 <__unpack_f>
    2266:	8e 01       	movw	r16, r28
    2268:	0f 5e       	subi	r16, 0xEF	; 239
    226a:	1f 4f       	sbci	r17, 0xFF	; 255
    226c:	b8 01       	movw	r22, r16
    226e:	ce 01       	movw	r24, r28
    2270:	05 96       	adiw	r24, 0x05	; 5
    2272:	0e 94 b0 13 	call	0x2760	; 0x2760 <__unpack_f>
    2276:	89 85       	ldd	r24, Y+9	; 0x09
    2278:	82 30       	cpi	r24, 0x02	; 2
    227a:	60 f0       	brcs	.+24     	; 0x2294 <__gtsf2+0x5e>
    227c:	89 89       	ldd	r24, Y+17	; 0x11
    227e:	82 30       	cpi	r24, 0x02	; 2
    2280:	48 f0       	brcs	.+18     	; 0x2294 <__gtsf2+0x5e>
    2282:	b8 01       	movw	r22, r16
    2284:	c7 01       	movw	r24, r14
    2286:	0e 94 20 14 	call	0x2840	; 0x2840 <__fpcmp_parts_f>
    228a:	28 2f       	mov	r18, r24
    228c:	33 27       	eor	r19, r19
    228e:	27 fd       	sbrc	r18, 7
    2290:	30 95       	com	r19
    2292:	02 c0       	rjmp	.+4      	; 0x2298 <__gtsf2+0x62>
    2294:	2f ef       	ldi	r18, 0xFF	; 255
    2296:	3f ef       	ldi	r19, 0xFF	; 255
    2298:	c9 01       	movw	r24, r18
    229a:	e6 e0       	ldi	r30, 0x06	; 6
    229c:	68 96       	adiw	r28, 0x18	; 24
    229e:	0c 94 9e 14 	jmp	0x293c	; 0x293c <__epilogue_restores__+0x18>

000022a2 <__gesf2>:
    22a2:	a8 e1       	ldi	r26, 0x18	; 24
    22a4:	b0 e0       	ldi	r27, 0x00	; 0
    22a6:	e7 e5       	ldi	r30, 0x57	; 87
    22a8:	f1 e1       	ldi	r31, 0x11	; 17
    22aa:	0c 94 82 14 	jmp	0x2904	; 0x2904 <__prologue_saves__+0x18>
    22ae:	69 83       	std	Y+1, r22	; 0x01
    22b0:	7a 83       	std	Y+2, r23	; 0x02
    22b2:	8b 83       	std	Y+3, r24	; 0x03
    22b4:	9c 83       	std	Y+4, r25	; 0x04
    22b6:	2d 83       	std	Y+5, r18	; 0x05
    22b8:	3e 83       	std	Y+6, r19	; 0x06
    22ba:	4f 83       	std	Y+7, r20	; 0x07
    22bc:	58 87       	std	Y+8, r21	; 0x08
    22be:	89 e0       	ldi	r24, 0x09	; 9
    22c0:	e8 2e       	mov	r14, r24
    22c2:	f1 2c       	mov	r15, r1
    22c4:	ec 0e       	add	r14, r28
    22c6:	fd 1e       	adc	r15, r29
    22c8:	b7 01       	movw	r22, r14
    22ca:	ce 01       	movw	r24, r28
    22cc:	01 96       	adiw	r24, 0x01	; 1
    22ce:	0e 94 b0 13 	call	0x2760	; 0x2760 <__unpack_f>
    22d2:	8e 01       	movw	r16, r28
    22d4:	0f 5e       	subi	r16, 0xEF	; 239
    22d6:	1f 4f       	sbci	r17, 0xFF	; 255
    22d8:	b8 01       	movw	r22, r16
    22da:	ce 01       	movw	r24, r28
    22dc:	05 96       	adiw	r24, 0x05	; 5
    22de:	0e 94 b0 13 	call	0x2760	; 0x2760 <__unpack_f>
    22e2:	89 85       	ldd	r24, Y+9	; 0x09
    22e4:	82 30       	cpi	r24, 0x02	; 2
    22e6:	60 f0       	brcs	.+24     	; 0x2300 <__gesf2+0x5e>
    22e8:	89 89       	ldd	r24, Y+17	; 0x11
    22ea:	82 30       	cpi	r24, 0x02	; 2
    22ec:	48 f0       	brcs	.+18     	; 0x2300 <__gesf2+0x5e>
    22ee:	b8 01       	movw	r22, r16
    22f0:	c7 01       	movw	r24, r14
    22f2:	0e 94 20 14 	call	0x2840	; 0x2840 <__fpcmp_parts_f>
    22f6:	28 2f       	mov	r18, r24
    22f8:	33 27       	eor	r19, r19
    22fa:	27 fd       	sbrc	r18, 7
    22fc:	30 95       	com	r19
    22fe:	02 c0       	rjmp	.+4      	; 0x2304 <__gesf2+0x62>
    2300:	2f ef       	ldi	r18, 0xFF	; 255
    2302:	3f ef       	ldi	r19, 0xFF	; 255
    2304:	c9 01       	movw	r24, r18
    2306:	e6 e0       	ldi	r30, 0x06	; 6
    2308:	68 96       	adiw	r28, 0x18	; 24
    230a:	0c 94 9e 14 	jmp	0x293c	; 0x293c <__epilogue_restores__+0x18>

0000230e <__ltsf2>:
    230e:	a8 e1       	ldi	r26, 0x18	; 24
    2310:	b0 e0       	ldi	r27, 0x00	; 0
    2312:	ed e8       	ldi	r30, 0x8D	; 141
    2314:	f1 e1       	ldi	r31, 0x11	; 17
    2316:	0c 94 82 14 	jmp	0x2904	; 0x2904 <__prologue_saves__+0x18>
    231a:	69 83       	std	Y+1, r22	; 0x01
    231c:	7a 83       	std	Y+2, r23	; 0x02
    231e:	8b 83       	std	Y+3, r24	; 0x03
    2320:	9c 83       	std	Y+4, r25	; 0x04
    2322:	2d 83       	std	Y+5, r18	; 0x05
    2324:	3e 83       	std	Y+6, r19	; 0x06
    2326:	4f 83       	std	Y+7, r20	; 0x07
    2328:	58 87       	std	Y+8, r21	; 0x08
    232a:	89 e0       	ldi	r24, 0x09	; 9
    232c:	e8 2e       	mov	r14, r24
    232e:	f1 2c       	mov	r15, r1
    2330:	ec 0e       	add	r14, r28
    2332:	fd 1e       	adc	r15, r29
    2334:	b7 01       	movw	r22, r14
    2336:	ce 01       	movw	r24, r28
    2338:	01 96       	adiw	r24, 0x01	; 1
    233a:	0e 94 b0 13 	call	0x2760	; 0x2760 <__unpack_f>
    233e:	8e 01       	movw	r16, r28
    2340:	0f 5e       	subi	r16, 0xEF	; 239
    2342:	1f 4f       	sbci	r17, 0xFF	; 255
    2344:	b8 01       	movw	r22, r16
    2346:	ce 01       	movw	r24, r28
    2348:	05 96       	adiw	r24, 0x05	; 5
    234a:	0e 94 b0 13 	call	0x2760	; 0x2760 <__unpack_f>
    234e:	89 85       	ldd	r24, Y+9	; 0x09
    2350:	82 30       	cpi	r24, 0x02	; 2
    2352:	60 f0       	brcs	.+24     	; 0x236c <__ltsf2+0x5e>
    2354:	89 89       	ldd	r24, Y+17	; 0x11
    2356:	82 30       	cpi	r24, 0x02	; 2
    2358:	48 f0       	brcs	.+18     	; 0x236c <__ltsf2+0x5e>
    235a:	b8 01       	movw	r22, r16
    235c:	c7 01       	movw	r24, r14
    235e:	0e 94 20 14 	call	0x2840	; 0x2840 <__fpcmp_parts_f>
    2362:	28 2f       	mov	r18, r24
    2364:	33 27       	eor	r19, r19
    2366:	27 fd       	sbrc	r18, 7
    2368:	30 95       	com	r19
    236a:	02 c0       	rjmp	.+4      	; 0x2370 <__ltsf2+0x62>
    236c:	21 e0       	ldi	r18, 0x01	; 1
    236e:	30 e0       	ldi	r19, 0x00	; 0
    2370:	c9 01       	movw	r24, r18
    2372:	e6 e0       	ldi	r30, 0x06	; 6
    2374:	68 96       	adiw	r28, 0x18	; 24
    2376:	0c 94 9e 14 	jmp	0x293c	; 0x293c <__epilogue_restores__+0x18>

0000237a <__fixsfsi>:
    237a:	ac e0       	ldi	r26, 0x0C	; 12
    237c:	b0 e0       	ldi	r27, 0x00	; 0
    237e:	e3 ec       	ldi	r30, 0xC3	; 195
    2380:	f1 e1       	ldi	r31, 0x11	; 17
    2382:	0c 94 86 14 	jmp	0x290c	; 0x290c <__prologue_saves__+0x20>
    2386:	69 83       	std	Y+1, r22	; 0x01
    2388:	7a 83       	std	Y+2, r23	; 0x02
    238a:	8b 83       	std	Y+3, r24	; 0x03
    238c:	9c 83       	std	Y+4, r25	; 0x04
    238e:	be 01       	movw	r22, r28
    2390:	6b 5f       	subi	r22, 0xFB	; 251
    2392:	7f 4f       	sbci	r23, 0xFF	; 255
    2394:	ce 01       	movw	r24, r28
    2396:	01 96       	adiw	r24, 0x01	; 1
    2398:	0e 94 b0 13 	call	0x2760	; 0x2760 <__unpack_f>
    239c:	8d 81       	ldd	r24, Y+5	; 0x05
    239e:	82 30       	cpi	r24, 0x02	; 2
    23a0:	a9 f1       	breq	.+106    	; 0x240c <__fixsfsi+0x92>
    23a2:	82 30       	cpi	r24, 0x02	; 2
    23a4:	98 f1       	brcs	.+102    	; 0x240c <__fixsfsi+0x92>
    23a6:	84 30       	cpi	r24, 0x04	; 4
    23a8:	21 f4       	brne	.+8      	; 0x23b2 <__fixsfsi+0x38>
    23aa:	8e 81       	ldd	r24, Y+6	; 0x06
    23ac:	88 23       	and	r24, r24
    23ae:	59 f4       	brne	.+22     	; 0x23c6 <__fixsfsi+0x4c>
    23b0:	0f c0       	rjmp	.+30     	; 0x23d0 <__fixsfsi+0x56>
    23b2:	2f 81       	ldd	r18, Y+7	; 0x07
    23b4:	38 85       	ldd	r19, Y+8	; 0x08
    23b6:	37 fd       	sbrc	r19, 7
    23b8:	29 c0       	rjmp	.+82     	; 0x240c <__fixsfsi+0x92>
    23ba:	6e 81       	ldd	r22, Y+6	; 0x06
    23bc:	2f 31       	cpi	r18, 0x1F	; 31
    23be:	31 05       	cpc	r19, r1
    23c0:	64 f0       	brlt	.+24     	; 0x23da <__fixsfsi+0x60>
    23c2:	66 23       	and	r22, r22
    23c4:	29 f0       	breq	.+10     	; 0x23d0 <__fixsfsi+0x56>
    23c6:	20 e0       	ldi	r18, 0x00	; 0
    23c8:	30 e0       	ldi	r19, 0x00	; 0
    23ca:	40 e0       	ldi	r20, 0x00	; 0
    23cc:	50 e8       	ldi	r21, 0x80	; 128
    23ce:	22 c0       	rjmp	.+68     	; 0x2414 <__fixsfsi+0x9a>
    23d0:	2f ef       	ldi	r18, 0xFF	; 255
    23d2:	3f ef       	ldi	r19, 0xFF	; 255
    23d4:	4f ef       	ldi	r20, 0xFF	; 255
    23d6:	5f e7       	ldi	r21, 0x7F	; 127
    23d8:	1d c0       	rjmp	.+58     	; 0x2414 <__fixsfsi+0x9a>
    23da:	8e e1       	ldi	r24, 0x1E	; 30
    23dc:	90 e0       	ldi	r25, 0x00	; 0
    23de:	82 1b       	sub	r24, r18
    23e0:	93 0b       	sbc	r25, r19
    23e2:	29 85       	ldd	r18, Y+9	; 0x09
    23e4:	3a 85       	ldd	r19, Y+10	; 0x0a
    23e6:	4b 85       	ldd	r20, Y+11	; 0x0b
    23e8:	5c 85       	ldd	r21, Y+12	; 0x0c
    23ea:	04 c0       	rjmp	.+8      	; 0x23f4 <__fixsfsi+0x7a>
    23ec:	56 95       	lsr	r21
    23ee:	47 95       	ror	r20
    23f0:	37 95       	ror	r19
    23f2:	27 95       	ror	r18
    23f4:	8a 95       	dec	r24
    23f6:	d2 f7       	brpl	.-12     	; 0x23ec <__fixsfsi+0x72>
    23f8:	66 23       	and	r22, r22
    23fa:	61 f0       	breq	.+24     	; 0x2414 <__fixsfsi+0x9a>
    23fc:	50 95       	com	r21
    23fe:	40 95       	com	r20
    2400:	30 95       	com	r19
    2402:	21 95       	neg	r18
    2404:	3f 4f       	sbci	r19, 0xFF	; 255
    2406:	4f 4f       	sbci	r20, 0xFF	; 255
    2408:	5f 4f       	sbci	r21, 0xFF	; 255
    240a:	04 c0       	rjmp	.+8      	; 0x2414 <__fixsfsi+0x9a>
    240c:	20 e0       	ldi	r18, 0x00	; 0
    240e:	30 e0       	ldi	r19, 0x00	; 0
    2410:	40 e0       	ldi	r20, 0x00	; 0
    2412:	50 e0       	ldi	r21, 0x00	; 0
    2414:	ca 01       	movw	r24, r20
    2416:	b9 01       	movw	r22, r18
    2418:	e2 e0       	ldi	r30, 0x02	; 2
    241a:	2c 96       	adiw	r28, 0x0c	; 12
    241c:	0c 94 a2 14 	jmp	0x2944	; 0x2944 <__epilogue_restores__+0x20>

00002420 <__floatunsisf>:
    2420:	a8 e0       	ldi	r26, 0x08	; 8
    2422:	b0 e0       	ldi	r27, 0x00	; 0
    2424:	e6 e1       	ldi	r30, 0x16	; 22
    2426:	f2 e1       	ldi	r31, 0x12	; 18
    2428:	0c 94 80 14 	jmp	0x2900	; 0x2900 <__prologue_saves__+0x14>
    242c:	7b 01       	movw	r14, r22
    242e:	8c 01       	movw	r16, r24
    2430:	61 15       	cp	r22, r1
    2432:	71 05       	cpc	r23, r1
    2434:	81 05       	cpc	r24, r1
    2436:	91 05       	cpc	r25, r1
    2438:	19 f4       	brne	.+6      	; 0x2440 <__floatunsisf+0x20>
    243a:	82 e0       	ldi	r24, 0x02	; 2
    243c:	89 83       	std	Y+1, r24	; 0x01
    243e:	5a c0       	rjmp	.+180    	; 0x24f4 <__floatunsisf+0xd4>
    2440:	83 e0       	ldi	r24, 0x03	; 3
    2442:	89 83       	std	Y+1, r24	; 0x01
    2444:	8e e1       	ldi	r24, 0x1E	; 30
    2446:	c8 2e       	mov	r12, r24
    2448:	d1 2c       	mov	r13, r1
    244a:	dc 82       	std	Y+4, r13	; 0x04
    244c:	cb 82       	std	Y+3, r12	; 0x03
    244e:	ed 82       	std	Y+5, r14	; 0x05
    2450:	fe 82       	std	Y+6, r15	; 0x06
    2452:	0f 83       	std	Y+7, r16	; 0x07
    2454:	18 87       	std	Y+8, r17	; 0x08
    2456:	c8 01       	movw	r24, r16
    2458:	b7 01       	movw	r22, r14
    245a:	0e 94 83 12 	call	0x2506	; 0x2506 <__clzsi2>
    245e:	bc 01       	movw	r22, r24
    2460:	61 50       	subi	r22, 0x01	; 1
    2462:	70 40       	sbci	r23, 0x00	; 0
    2464:	77 ff       	sbrs	r23, 7
    2466:	33 c0       	rjmp	.+102    	; 0x24ce <__floatunsisf+0xae>
    2468:	ee 27       	eor	r30, r30
    246a:	ff 27       	eor	r31, r31
    246c:	e6 1b       	sub	r30, r22
    246e:	f7 0b       	sbc	r31, r23
    2470:	20 e0       	ldi	r18, 0x00	; 0
    2472:	30 e0       	ldi	r19, 0x00	; 0
    2474:	40 e0       	ldi	r20, 0x00	; 0
    2476:	50 e0       	ldi	r21, 0x00	; 0
    2478:	81 e0       	ldi	r24, 0x01	; 1
    247a:	90 e0       	ldi	r25, 0x00	; 0
    247c:	a0 e0       	ldi	r26, 0x00	; 0
    247e:	b0 e0       	ldi	r27, 0x00	; 0
    2480:	0e 2e       	mov	r0, r30
    2482:	04 c0       	rjmp	.+8      	; 0x248c <__floatunsisf+0x6c>
    2484:	88 0f       	add	r24, r24
    2486:	99 1f       	adc	r25, r25
    2488:	aa 1f       	adc	r26, r26
    248a:	bb 1f       	adc	r27, r27
    248c:	0a 94       	dec	r0
    248e:	d2 f7       	brpl	.-12     	; 0x2484 <__floatunsisf+0x64>
    2490:	01 97       	sbiw	r24, 0x01	; 1
    2492:	a1 09       	sbc	r26, r1
    2494:	b1 09       	sbc	r27, r1
    2496:	8e 21       	and	r24, r14
    2498:	9f 21       	and	r25, r15
    249a:	a0 23       	and	r26, r16
    249c:	b1 23       	and	r27, r17
    249e:	00 97       	sbiw	r24, 0x00	; 0
    24a0:	a1 05       	cpc	r26, r1
    24a2:	b1 05       	cpc	r27, r1
    24a4:	21 f0       	breq	.+8      	; 0x24ae <__floatunsisf+0x8e>
    24a6:	21 e0       	ldi	r18, 0x01	; 1
    24a8:	30 e0       	ldi	r19, 0x00	; 0
    24aa:	40 e0       	ldi	r20, 0x00	; 0
    24ac:	50 e0       	ldi	r21, 0x00	; 0
    24ae:	04 c0       	rjmp	.+8      	; 0x24b8 <__floatunsisf+0x98>
    24b0:	16 95       	lsr	r17
    24b2:	07 95       	ror	r16
    24b4:	f7 94       	ror	r15
    24b6:	e7 94       	ror	r14
    24b8:	ea 95       	dec	r30
    24ba:	d2 f7       	brpl	.-12     	; 0x24b0 <__floatunsisf+0x90>
    24bc:	2e 29       	or	r18, r14
    24be:	3f 29       	or	r19, r15
    24c0:	40 2b       	or	r20, r16
    24c2:	51 2b       	or	r21, r17
    24c4:	2d 83       	std	Y+5, r18	; 0x05
    24c6:	3e 83       	std	Y+6, r19	; 0x06
    24c8:	4f 83       	std	Y+7, r20	; 0x07
    24ca:	58 87       	std	Y+8, r21	; 0x08
    24cc:	0f c0       	rjmp	.+30     	; 0x24ec <__floatunsisf+0xcc>
    24ce:	61 15       	cp	r22, r1
    24d0:	71 05       	cpc	r23, r1
    24d2:	81 f0       	breq	.+32     	; 0x24f4 <__floatunsisf+0xd4>
    24d4:	06 2e       	mov	r0, r22
    24d6:	04 c0       	rjmp	.+8      	; 0x24e0 <__floatunsisf+0xc0>
    24d8:	ee 0c       	add	r14, r14
    24da:	ff 1c       	adc	r15, r15
    24dc:	00 1f       	adc	r16, r16
    24de:	11 1f       	adc	r17, r17
    24e0:	0a 94       	dec	r0
    24e2:	d2 f7       	brpl	.-12     	; 0x24d8 <__floatunsisf+0xb8>
    24e4:	ed 82       	std	Y+5, r14	; 0x05
    24e6:	fe 82       	std	Y+6, r15	; 0x06
    24e8:	0f 83       	std	Y+7, r16	; 0x07
    24ea:	18 87       	std	Y+8, r17	; 0x08
    24ec:	c6 1a       	sub	r12, r22
    24ee:	d7 0a       	sbc	r13, r23
    24f0:	dc 82       	std	Y+4, r13	; 0x04
    24f2:	cb 82       	std	Y+3, r12	; 0x03
    24f4:	1a 82       	std	Y+2, r1	; 0x02
    24f6:	ce 01       	movw	r24, r28
    24f8:	01 96       	adiw	r24, 0x01	; 1
    24fa:	0e 94 d0 12 	call	0x25a0	; 0x25a0 <__pack_f>
    24fe:	e8 e0       	ldi	r30, 0x08	; 8
    2500:	28 96       	adiw	r28, 0x08	; 8
    2502:	0c 94 9c 14 	jmp	0x2938	; 0x2938 <__epilogue_restores__+0x14>

00002506 <__clzsi2>:
    2506:	ef 92       	push	r14
    2508:	ff 92       	push	r15
    250a:	0f 93       	push	r16
    250c:	1f 93       	push	r17
    250e:	9b 01       	movw	r18, r22
    2510:	ac 01       	movw	r20, r24
    2512:	20 30       	cpi	r18, 0x00	; 0
    2514:	80 e0       	ldi	r24, 0x00	; 0
    2516:	38 07       	cpc	r19, r24
    2518:	81 e0       	ldi	r24, 0x01	; 1
    251a:	48 07       	cpc	r20, r24
    251c:	80 e0       	ldi	r24, 0x00	; 0
    251e:	58 07       	cpc	r21, r24
    2520:	80 f4       	brcc	.+32     	; 0x2542 <__clzsi2+0x3c>
    2522:	2f 3f       	cpi	r18, 0xFF	; 255
    2524:	31 05       	cpc	r19, r1
    2526:	41 05       	cpc	r20, r1
    2528:	51 05       	cpc	r21, r1
    252a:	09 f0       	breq	.+2      	; 0x252e <__clzsi2+0x28>
    252c:	20 f4       	brcc	.+8      	; 0x2536 <__clzsi2+0x30>
    252e:	ee 24       	eor	r14, r14
    2530:	ff 24       	eor	r15, r15
    2532:	87 01       	movw	r16, r14
    2534:	19 c0       	rjmp	.+50     	; 0x2568 <__clzsi2+0x62>
    2536:	68 e0       	ldi	r22, 0x08	; 8
    2538:	e6 2e       	mov	r14, r22
    253a:	f1 2c       	mov	r15, r1
    253c:	01 2d       	mov	r16, r1
    253e:	11 2d       	mov	r17, r1
    2540:	13 c0       	rjmp	.+38     	; 0x2568 <__clzsi2+0x62>
    2542:	20 30       	cpi	r18, 0x00	; 0
    2544:	80 e0       	ldi	r24, 0x00	; 0
    2546:	38 07       	cpc	r19, r24
    2548:	80 e0       	ldi	r24, 0x00	; 0
    254a:	48 07       	cpc	r20, r24
    254c:	81 e0       	ldi	r24, 0x01	; 1
    254e:	58 07       	cpc	r21, r24
    2550:	30 f4       	brcc	.+12     	; 0x255e <__clzsi2+0x58>
    2552:	90 e1       	ldi	r25, 0x10	; 16
    2554:	e9 2e       	mov	r14, r25
    2556:	f1 2c       	mov	r15, r1
    2558:	01 2d       	mov	r16, r1
    255a:	11 2d       	mov	r17, r1
    255c:	05 c0       	rjmp	.+10     	; 0x2568 <__clzsi2+0x62>
    255e:	88 e1       	ldi	r24, 0x18	; 24
    2560:	e8 2e       	mov	r14, r24
    2562:	f1 2c       	mov	r15, r1
    2564:	01 2d       	mov	r16, r1
    2566:	11 2d       	mov	r17, r1
    2568:	80 e2       	ldi	r24, 0x20	; 32
    256a:	90 e0       	ldi	r25, 0x00	; 0
    256c:	a0 e0       	ldi	r26, 0x00	; 0
    256e:	b0 e0       	ldi	r27, 0x00	; 0
    2570:	8e 19       	sub	r24, r14
    2572:	9f 09       	sbc	r25, r15
    2574:	a0 0b       	sbc	r26, r16
    2576:	b1 0b       	sbc	r27, r17
    2578:	04 c0       	rjmp	.+8      	; 0x2582 <__clzsi2+0x7c>
    257a:	56 95       	lsr	r21
    257c:	47 95       	ror	r20
    257e:	37 95       	ror	r19
    2580:	27 95       	ror	r18
    2582:	ea 94       	dec	r14
    2584:	d2 f7       	brpl	.-12     	; 0x257a <__clzsi2+0x74>
    2586:	f9 01       	movw	r30, r18
    2588:	e8 5f       	subi	r30, 0xF8	; 248
    258a:	fd 4f       	sbci	r31, 0xFD	; 253
    258c:	20 81       	ld	r18, Z
    258e:	82 1b       	sub	r24, r18
    2590:	91 09       	sbc	r25, r1
    2592:	a1 09       	sbc	r26, r1
    2594:	b1 09       	sbc	r27, r1
    2596:	1f 91       	pop	r17
    2598:	0f 91       	pop	r16
    259a:	ff 90       	pop	r15
    259c:	ef 90       	pop	r14
    259e:	08 95       	ret

000025a0 <__pack_f>:
    25a0:	9f 92       	push	r9
    25a2:	af 92       	push	r10
    25a4:	bf 92       	push	r11
    25a6:	cf 92       	push	r12
    25a8:	df 92       	push	r13
    25aa:	ef 92       	push	r14
    25ac:	ff 92       	push	r15
    25ae:	0f 93       	push	r16
    25b0:	1f 93       	push	r17
    25b2:	ee 24       	eor	r14, r14
    25b4:	ff 24       	eor	r15, r15
    25b6:	87 01       	movw	r16, r14
    25b8:	fc 01       	movw	r30, r24
    25ba:	24 81       	ldd	r18, Z+4	; 0x04
    25bc:	35 81       	ldd	r19, Z+5	; 0x05
    25be:	46 81       	ldd	r20, Z+6	; 0x06
    25c0:	57 81       	ldd	r21, Z+7	; 0x07
    25c2:	91 80       	ldd	r9, Z+1	; 0x01
    25c4:	80 81       	ld	r24, Z
    25c6:	82 30       	cpi	r24, 0x02	; 2
    25c8:	10 f4       	brcc	.+4      	; 0x25ce <__pack_f+0x2e>
    25ca:	40 61       	ori	r20, 0x10	; 16
    25cc:	a2 c0       	rjmp	.+324    	; 0x2712 <__pack_f+0x172>
    25ce:	84 30       	cpi	r24, 0x04	; 4
    25d0:	09 f4       	brne	.+2      	; 0x25d4 <__pack_f+0x34>
    25d2:	9b c0       	rjmp	.+310    	; 0x270a <__pack_f+0x16a>
    25d4:	82 30       	cpi	r24, 0x02	; 2
    25d6:	29 f4       	brne	.+10     	; 0x25e2 <__pack_f+0x42>
    25d8:	20 e0       	ldi	r18, 0x00	; 0
    25da:	30 e0       	ldi	r19, 0x00	; 0
    25dc:	40 e0       	ldi	r20, 0x00	; 0
    25de:	50 e0       	ldi	r21, 0x00	; 0
    25e0:	05 c0       	rjmp	.+10     	; 0x25ec <__pack_f+0x4c>
    25e2:	21 15       	cp	r18, r1
    25e4:	31 05       	cpc	r19, r1
    25e6:	41 05       	cpc	r20, r1
    25e8:	51 05       	cpc	r21, r1
    25ea:	19 f4       	brne	.+6      	; 0x25f2 <__pack_f+0x52>
    25ec:	e0 e0       	ldi	r30, 0x00	; 0
    25ee:	f0 e0       	ldi	r31, 0x00	; 0
    25f0:	92 c0       	rjmp	.+292    	; 0x2716 <__pack_f+0x176>
    25f2:	82 81       	ldd	r24, Z+2	; 0x02
    25f4:	93 81       	ldd	r25, Z+3	; 0x03
    25f6:	6f ef       	ldi	r22, 0xFF	; 255
    25f8:	82 38       	cpi	r24, 0x82	; 130
    25fa:	96 07       	cpc	r25, r22
    25fc:	0c f0       	brlt	.+2      	; 0x2600 <__pack_f+0x60>
    25fe:	5a c0       	rjmp	.+180    	; 0x26b4 <__pack_f+0x114>
    2600:	62 e8       	ldi	r22, 0x82	; 130
    2602:	7f ef       	ldi	r23, 0xFF	; 255
    2604:	68 1b       	sub	r22, r24
    2606:	79 0b       	sbc	r23, r25
    2608:	6a 31       	cpi	r22, 0x1A	; 26
    260a:	71 05       	cpc	r23, r1
    260c:	2c f0       	brlt	.+10     	; 0x2618 <__pack_f+0x78>
    260e:	20 e0       	ldi	r18, 0x00	; 0
    2610:	30 e0       	ldi	r19, 0x00	; 0
    2612:	40 e0       	ldi	r20, 0x00	; 0
    2614:	50 e0       	ldi	r21, 0x00	; 0
    2616:	2a c0       	rjmp	.+84     	; 0x266c <__pack_f+0xcc>
    2618:	aa 24       	eor	r10, r10
    261a:	bb 24       	eor	r11, r11
    261c:	65 01       	movw	r12, r10
    261e:	81 e0       	ldi	r24, 0x01	; 1
    2620:	90 e0       	ldi	r25, 0x00	; 0
    2622:	a0 e0       	ldi	r26, 0x00	; 0
    2624:	b0 e0       	ldi	r27, 0x00	; 0
    2626:	06 2e       	mov	r0, r22
    2628:	04 c0       	rjmp	.+8      	; 0x2632 <__pack_f+0x92>
    262a:	88 0f       	add	r24, r24
    262c:	99 1f       	adc	r25, r25
    262e:	aa 1f       	adc	r26, r26
    2630:	bb 1f       	adc	r27, r27
    2632:	0a 94       	dec	r0
    2634:	d2 f7       	brpl	.-12     	; 0x262a <__pack_f+0x8a>
    2636:	01 97       	sbiw	r24, 0x01	; 1
    2638:	a1 09       	sbc	r26, r1
    263a:	b1 09       	sbc	r27, r1
    263c:	82 23       	and	r24, r18
    263e:	93 23       	and	r25, r19
    2640:	a4 23       	and	r26, r20
    2642:	b5 23       	and	r27, r21
    2644:	00 97       	sbiw	r24, 0x00	; 0
    2646:	a1 05       	cpc	r26, r1
    2648:	b1 05       	cpc	r27, r1
    264a:	29 f0       	breq	.+10     	; 0x2656 <__pack_f+0xb6>
    264c:	71 e0       	ldi	r23, 0x01	; 1
    264e:	a7 2e       	mov	r10, r23
    2650:	b1 2c       	mov	r11, r1
    2652:	c1 2c       	mov	r12, r1
    2654:	d1 2c       	mov	r13, r1
    2656:	04 c0       	rjmp	.+8      	; 0x2660 <__pack_f+0xc0>
    2658:	56 95       	lsr	r21
    265a:	47 95       	ror	r20
    265c:	37 95       	ror	r19
    265e:	27 95       	ror	r18
    2660:	6a 95       	dec	r22
    2662:	d2 f7       	brpl	.-12     	; 0x2658 <__pack_f+0xb8>
    2664:	2a 29       	or	r18, r10
    2666:	3b 29       	or	r19, r11
    2668:	4c 29       	or	r20, r12
    266a:	5d 29       	or	r21, r13
    266c:	da 01       	movw	r26, r20
    266e:	c9 01       	movw	r24, r18
    2670:	8f 77       	andi	r24, 0x7F	; 127
    2672:	90 70       	andi	r25, 0x00	; 0
    2674:	a0 70       	andi	r26, 0x00	; 0
    2676:	b0 70       	andi	r27, 0x00	; 0
    2678:	80 34       	cpi	r24, 0x40	; 64
    267a:	91 05       	cpc	r25, r1
    267c:	a1 05       	cpc	r26, r1
    267e:	b1 05       	cpc	r27, r1
    2680:	39 f4       	brne	.+14     	; 0x2690 <__pack_f+0xf0>
    2682:	27 ff       	sbrs	r18, 7
    2684:	09 c0       	rjmp	.+18     	; 0x2698 <__pack_f+0xf8>
    2686:	20 5c       	subi	r18, 0xC0	; 192
    2688:	3f 4f       	sbci	r19, 0xFF	; 255
    268a:	4f 4f       	sbci	r20, 0xFF	; 255
    268c:	5f 4f       	sbci	r21, 0xFF	; 255
    268e:	04 c0       	rjmp	.+8      	; 0x2698 <__pack_f+0xf8>
    2690:	21 5c       	subi	r18, 0xC1	; 193
    2692:	3f 4f       	sbci	r19, 0xFF	; 255
    2694:	4f 4f       	sbci	r20, 0xFF	; 255
    2696:	5f 4f       	sbci	r21, 0xFF	; 255
    2698:	80 e0       	ldi	r24, 0x00	; 0
    269a:	90 e0       	ldi	r25, 0x00	; 0
    269c:	20 30       	cpi	r18, 0x00	; 0
    269e:	60 e0       	ldi	r22, 0x00	; 0
    26a0:	36 07       	cpc	r19, r22
    26a2:	60 e0       	ldi	r22, 0x00	; 0
    26a4:	46 07       	cpc	r20, r22
    26a6:	60 e4       	ldi	r22, 0x40	; 64
    26a8:	56 07       	cpc	r21, r22
    26aa:	10 f0       	brcs	.+4      	; 0x26b0 <__pack_f+0x110>
    26ac:	81 e0       	ldi	r24, 0x01	; 1
    26ae:	90 e0       	ldi	r25, 0x00	; 0
    26b0:	fc 01       	movw	r30, r24
    26b2:	23 c0       	rjmp	.+70     	; 0x26fa <__pack_f+0x15a>
    26b4:	80 38       	cpi	r24, 0x80	; 128
    26b6:	91 05       	cpc	r25, r1
    26b8:	44 f5       	brge	.+80     	; 0x270a <__pack_f+0x16a>
    26ba:	fc 01       	movw	r30, r24
    26bc:	e1 58       	subi	r30, 0x81	; 129
    26be:	ff 4f       	sbci	r31, 0xFF	; 255
    26c0:	da 01       	movw	r26, r20
    26c2:	c9 01       	movw	r24, r18
    26c4:	8f 77       	andi	r24, 0x7F	; 127
    26c6:	90 70       	andi	r25, 0x00	; 0
    26c8:	a0 70       	andi	r26, 0x00	; 0
    26ca:	b0 70       	andi	r27, 0x00	; 0
    26cc:	80 34       	cpi	r24, 0x40	; 64
    26ce:	91 05       	cpc	r25, r1
    26d0:	a1 05       	cpc	r26, r1
    26d2:	b1 05       	cpc	r27, r1
    26d4:	39 f4       	brne	.+14     	; 0x26e4 <__pack_f+0x144>
    26d6:	27 ff       	sbrs	r18, 7
    26d8:	09 c0       	rjmp	.+18     	; 0x26ec <__pack_f+0x14c>
    26da:	20 5c       	subi	r18, 0xC0	; 192
    26dc:	3f 4f       	sbci	r19, 0xFF	; 255
    26de:	4f 4f       	sbci	r20, 0xFF	; 255
    26e0:	5f 4f       	sbci	r21, 0xFF	; 255
    26e2:	04 c0       	rjmp	.+8      	; 0x26ec <__pack_f+0x14c>
    26e4:	21 5c       	subi	r18, 0xC1	; 193
    26e6:	3f 4f       	sbci	r19, 0xFF	; 255
    26e8:	4f 4f       	sbci	r20, 0xFF	; 255
    26ea:	5f 4f       	sbci	r21, 0xFF	; 255
    26ec:	57 ff       	sbrs	r21, 7
    26ee:	05 c0       	rjmp	.+10     	; 0x26fa <__pack_f+0x15a>
    26f0:	56 95       	lsr	r21
    26f2:	47 95       	ror	r20
    26f4:	37 95       	ror	r19
    26f6:	27 95       	ror	r18
    26f8:	31 96       	adiw	r30, 0x01	; 1
    26fa:	87 e0       	ldi	r24, 0x07	; 7
    26fc:	56 95       	lsr	r21
    26fe:	47 95       	ror	r20
    2700:	37 95       	ror	r19
    2702:	27 95       	ror	r18
    2704:	8a 95       	dec	r24
    2706:	d1 f7       	brne	.-12     	; 0x26fc <__pack_f+0x15c>
    2708:	06 c0       	rjmp	.+12     	; 0x2716 <__pack_f+0x176>
    270a:	20 e0       	ldi	r18, 0x00	; 0
    270c:	30 e0       	ldi	r19, 0x00	; 0
    270e:	40 e0       	ldi	r20, 0x00	; 0
    2710:	50 e0       	ldi	r21, 0x00	; 0
    2712:	ef ef       	ldi	r30, 0xFF	; 255
    2714:	f0 e0       	ldi	r31, 0x00	; 0
    2716:	e2 2e       	mov	r14, r18
    2718:	f3 2e       	mov	r15, r19
    271a:	94 2f       	mov	r25, r20
    271c:	9f 77       	andi	r25, 0x7F	; 127
    271e:	80 2f       	mov	r24, r16
    2720:	80 78       	andi	r24, 0x80	; 128
    2722:	89 2b       	or	r24, r25
    2724:	9e 2f       	mov	r25, r30
    2726:	97 95       	ror	r25
    2728:	99 27       	eor	r25, r25
    272a:	97 95       	ror	r25
    272c:	8f 77       	andi	r24, 0x7F	; 127
    272e:	08 2f       	mov	r16, r24
    2730:	09 2b       	or	r16, r25
    2732:	9e 2f       	mov	r25, r30
    2734:	96 95       	lsr	r25
    2736:	81 2f       	mov	r24, r17
    2738:	80 78       	andi	r24, 0x80	; 128
    273a:	89 2b       	or	r24, r25
    273c:	97 94       	ror	r9
    273e:	99 24       	eor	r9, r9
    2740:	97 94       	ror	r9
    2742:	8f 77       	andi	r24, 0x7F	; 127
    2744:	18 2f       	mov	r17, r24
    2746:	19 29       	or	r17, r9
    2748:	c8 01       	movw	r24, r16
    274a:	b7 01       	movw	r22, r14
    274c:	1f 91       	pop	r17
    274e:	0f 91       	pop	r16
    2750:	ff 90       	pop	r15
    2752:	ef 90       	pop	r14
    2754:	df 90       	pop	r13
    2756:	cf 90       	pop	r12
    2758:	bf 90       	pop	r11
    275a:	af 90       	pop	r10
    275c:	9f 90       	pop	r9
    275e:	08 95       	ret

00002760 <__unpack_f>:
    2760:	cf 93       	push	r28
    2762:	df 93       	push	r29
    2764:	fc 01       	movw	r30, r24
    2766:	db 01       	movw	r26, r22
    2768:	20 81       	ld	r18, Z
    276a:	31 81       	ldd	r19, Z+1	; 0x01
    276c:	92 81       	ldd	r25, Z+2	; 0x02
    276e:	49 2f       	mov	r20, r25
    2770:	4f 77       	andi	r20, 0x7F	; 127
    2772:	50 e0       	ldi	r21, 0x00	; 0
    2774:	99 1f       	adc	r25, r25
    2776:	99 27       	eor	r25, r25
    2778:	99 1f       	adc	r25, r25
    277a:	83 81       	ldd	r24, Z+3	; 0x03
    277c:	e8 2f       	mov	r30, r24
    277e:	ee 0f       	add	r30, r30
    2780:	e9 2b       	or	r30, r25
    2782:	6e 2f       	mov	r22, r30
    2784:	70 e0       	ldi	r23, 0x00	; 0
    2786:	88 1f       	adc	r24, r24
    2788:	88 27       	eor	r24, r24
    278a:	88 1f       	adc	r24, r24
    278c:	ed 01       	movw	r28, r26
    278e:	89 83       	std	Y+1, r24	; 0x01
    2790:	ee 23       	and	r30, r30
    2792:	71 f5       	brne	.+92     	; 0x27f0 <__unpack_f+0x90>
    2794:	21 15       	cp	r18, r1
    2796:	31 05       	cpc	r19, r1
    2798:	41 05       	cpc	r20, r1
    279a:	51 05       	cpc	r21, r1
    279c:	11 f4       	brne	.+4      	; 0x27a2 <__unpack_f+0x42>
    279e:	82 e0       	ldi	r24, 0x02	; 2
    27a0:	2f c0       	rjmp	.+94     	; 0x2800 <__unpack_f+0xa0>
    27a2:	6e 57       	subi	r22, 0x7E	; 126
    27a4:	70 40       	sbci	r23, 0x00	; 0
    27a6:	fd 01       	movw	r30, r26
    27a8:	73 83       	std	Z+3, r23	; 0x03
    27aa:	62 83       	std	Z+2, r22	; 0x02
    27ac:	67 e0       	ldi	r22, 0x07	; 7
    27ae:	22 0f       	add	r18, r18
    27b0:	33 1f       	adc	r19, r19
    27b2:	44 1f       	adc	r20, r20
    27b4:	55 1f       	adc	r21, r21
    27b6:	6a 95       	dec	r22
    27b8:	d1 f7       	brne	.-12     	; 0x27ae <__unpack_f+0x4e>
    27ba:	83 e0       	ldi	r24, 0x03	; 3
    27bc:	8c 93       	st	X, r24
    27be:	0a c0       	rjmp	.+20     	; 0x27d4 <__unpack_f+0x74>
    27c0:	22 0f       	add	r18, r18
    27c2:	33 1f       	adc	r19, r19
    27c4:	44 1f       	adc	r20, r20
    27c6:	55 1f       	adc	r21, r21
    27c8:	ed 01       	movw	r28, r26
    27ca:	8a 81       	ldd	r24, Y+2	; 0x02
    27cc:	9b 81       	ldd	r25, Y+3	; 0x03
    27ce:	01 97       	sbiw	r24, 0x01	; 1
    27d0:	9b 83       	std	Y+3, r25	; 0x03
    27d2:	8a 83       	std	Y+2, r24	; 0x02
    27d4:	20 30       	cpi	r18, 0x00	; 0
    27d6:	e0 e0       	ldi	r30, 0x00	; 0
    27d8:	3e 07       	cpc	r19, r30
    27da:	e0 e0       	ldi	r30, 0x00	; 0
    27dc:	4e 07       	cpc	r20, r30
    27de:	e0 e4       	ldi	r30, 0x40	; 64
    27e0:	5e 07       	cpc	r21, r30
    27e2:	70 f3       	brcs	.-36     	; 0x27c0 <__unpack_f+0x60>
    27e4:	ed 01       	movw	r28, r26
    27e6:	2c 83       	std	Y+4, r18	; 0x04
    27e8:	3d 83       	std	Y+5, r19	; 0x05
    27ea:	4e 83       	std	Y+6, r20	; 0x06
    27ec:	5f 83       	std	Y+7, r21	; 0x07
    27ee:	25 c0       	rjmp	.+74     	; 0x283a <__unpack_f+0xda>
    27f0:	ef 3f       	cpi	r30, 0xFF	; 255
    27f2:	79 f4       	brne	.+30     	; 0x2812 <__unpack_f+0xb2>
    27f4:	21 15       	cp	r18, r1
    27f6:	31 05       	cpc	r19, r1
    27f8:	41 05       	cpc	r20, r1
    27fa:	51 05       	cpc	r21, r1
    27fc:	19 f4       	brne	.+6      	; 0x2804 <__unpack_f+0xa4>
    27fe:	84 e0       	ldi	r24, 0x04	; 4
    2800:	8c 93       	st	X, r24
    2802:	1b c0       	rjmp	.+54     	; 0x283a <__unpack_f+0xda>
    2804:	44 ff       	sbrs	r20, 4
    2806:	03 c0       	rjmp	.+6      	; 0x280e <__unpack_f+0xae>
    2808:	81 e0       	ldi	r24, 0x01	; 1
    280a:	8c 93       	st	X, r24
    280c:	11 c0       	rjmp	.+34     	; 0x2830 <__unpack_f+0xd0>
    280e:	1c 92       	st	X, r1
    2810:	0f c0       	rjmp	.+30     	; 0x2830 <__unpack_f+0xd0>
    2812:	6f 57       	subi	r22, 0x7F	; 127
    2814:	70 40       	sbci	r23, 0x00	; 0
    2816:	ed 01       	movw	r28, r26
    2818:	7b 83       	std	Y+3, r23	; 0x03
    281a:	6a 83       	std	Y+2, r22	; 0x02
    281c:	83 e0       	ldi	r24, 0x03	; 3
    281e:	8c 93       	st	X, r24
    2820:	87 e0       	ldi	r24, 0x07	; 7
    2822:	22 0f       	add	r18, r18
    2824:	33 1f       	adc	r19, r19
    2826:	44 1f       	adc	r20, r20
    2828:	55 1f       	adc	r21, r21
    282a:	8a 95       	dec	r24
    282c:	d1 f7       	brne	.-12     	; 0x2822 <__unpack_f+0xc2>
    282e:	50 64       	ori	r21, 0x40	; 64
    2830:	fd 01       	movw	r30, r26
    2832:	24 83       	std	Z+4, r18	; 0x04
    2834:	35 83       	std	Z+5, r19	; 0x05
    2836:	46 83       	std	Z+6, r20	; 0x06
    2838:	57 83       	std	Z+7, r21	; 0x07
    283a:	df 91       	pop	r29
    283c:	cf 91       	pop	r28
    283e:	08 95       	ret

00002840 <__fpcmp_parts_f>:
    2840:	cf 93       	push	r28
    2842:	df 93       	push	r29
    2844:	dc 01       	movw	r26, r24
    2846:	fb 01       	movw	r30, r22
    2848:	9c 91       	ld	r25, X
    284a:	92 30       	cpi	r25, 0x02	; 2
    284c:	08 f4       	brcc	.+2      	; 0x2850 <__fpcmp_parts_f+0x10>
    284e:	46 c0       	rjmp	.+140    	; 0x28dc <__fpcmp_parts_f+0x9c>
    2850:	80 81       	ld	r24, Z
    2852:	82 30       	cpi	r24, 0x02	; 2
    2854:	08 f4       	brcc	.+2      	; 0x2858 <__fpcmp_parts_f+0x18>
    2856:	42 c0       	rjmp	.+132    	; 0x28dc <__fpcmp_parts_f+0x9c>
    2858:	94 30       	cpi	r25, 0x04	; 4
    285a:	49 f4       	brne	.+18     	; 0x286e <__fpcmp_parts_f+0x2e>
    285c:	ed 01       	movw	r28, r26
    285e:	69 81       	ldd	r22, Y+1	; 0x01
    2860:	84 30       	cpi	r24, 0x04	; 4
    2862:	79 f5       	brne	.+94     	; 0x28c2 <__fpcmp_parts_f+0x82>
    2864:	81 81       	ldd	r24, Z+1	; 0x01
    2866:	90 e0       	ldi	r25, 0x00	; 0
    2868:	86 1b       	sub	r24, r22
    286a:	91 09       	sbc	r25, r1
    286c:	3c c0       	rjmp	.+120    	; 0x28e6 <__fpcmp_parts_f+0xa6>
    286e:	84 30       	cpi	r24, 0x04	; 4
    2870:	21 f0       	breq	.+8      	; 0x287a <__fpcmp_parts_f+0x3a>
    2872:	92 30       	cpi	r25, 0x02	; 2
    2874:	31 f4       	brne	.+12     	; 0x2882 <__fpcmp_parts_f+0x42>
    2876:	82 30       	cpi	r24, 0x02	; 2
    2878:	a1 f1       	breq	.+104    	; 0x28e2 <__fpcmp_parts_f+0xa2>
    287a:	81 81       	ldd	r24, Z+1	; 0x01
    287c:	88 23       	and	r24, r24
    287e:	71 f5       	brne	.+92     	; 0x28dc <__fpcmp_parts_f+0x9c>
    2880:	2a c0       	rjmp	.+84     	; 0x28d6 <__fpcmp_parts_f+0x96>
    2882:	ed 01       	movw	r28, r26
    2884:	69 81       	ldd	r22, Y+1	; 0x01
    2886:	82 30       	cpi	r24, 0x02	; 2
    2888:	e1 f0       	breq	.+56     	; 0x28c2 <__fpcmp_parts_f+0x82>
    288a:	81 81       	ldd	r24, Z+1	; 0x01
    288c:	68 17       	cp	r22, r24
    288e:	c9 f4       	brne	.+50     	; 0x28c2 <__fpcmp_parts_f+0x82>
    2890:	ed 01       	movw	r28, r26
    2892:	2a 81       	ldd	r18, Y+2	; 0x02
    2894:	3b 81       	ldd	r19, Y+3	; 0x03
    2896:	82 81       	ldd	r24, Z+2	; 0x02
    2898:	93 81       	ldd	r25, Z+3	; 0x03
    289a:	82 17       	cp	r24, r18
    289c:	93 07       	cpc	r25, r19
    289e:	8c f0       	brlt	.+34     	; 0x28c2 <__fpcmp_parts_f+0x82>
    28a0:	28 17       	cp	r18, r24
    28a2:	39 07       	cpc	r19, r25
    28a4:	b4 f0       	brlt	.+44     	; 0x28d2 <__fpcmp_parts_f+0x92>
    28a6:	ed 01       	movw	r28, r26
    28a8:	8c 81       	ldd	r24, Y+4	; 0x04
    28aa:	9d 81       	ldd	r25, Y+5	; 0x05
    28ac:	ae 81       	ldd	r26, Y+6	; 0x06
    28ae:	bf 81       	ldd	r27, Y+7	; 0x07
    28b0:	24 81       	ldd	r18, Z+4	; 0x04
    28b2:	35 81       	ldd	r19, Z+5	; 0x05
    28b4:	46 81       	ldd	r20, Z+6	; 0x06
    28b6:	57 81       	ldd	r21, Z+7	; 0x07
    28b8:	28 17       	cp	r18, r24
    28ba:	39 07       	cpc	r19, r25
    28bc:	4a 07       	cpc	r20, r26
    28be:	5b 07       	cpc	r21, r27
    28c0:	18 f4       	brcc	.+6      	; 0x28c8 <__fpcmp_parts_f+0x88>
    28c2:	66 23       	and	r22, r22
    28c4:	41 f4       	brne	.+16     	; 0x28d6 <__fpcmp_parts_f+0x96>
    28c6:	0a c0       	rjmp	.+20     	; 0x28dc <__fpcmp_parts_f+0x9c>
    28c8:	82 17       	cp	r24, r18
    28ca:	93 07       	cpc	r25, r19
    28cc:	a4 07       	cpc	r26, r20
    28ce:	b5 07       	cpc	r27, r21
    28d0:	40 f4       	brcc	.+16     	; 0x28e2 <__fpcmp_parts_f+0xa2>
    28d2:	66 23       	and	r22, r22
    28d4:	19 f4       	brne	.+6      	; 0x28dc <__fpcmp_parts_f+0x9c>
    28d6:	8f ef       	ldi	r24, 0xFF	; 255
    28d8:	9f ef       	ldi	r25, 0xFF	; 255
    28da:	05 c0       	rjmp	.+10     	; 0x28e6 <__fpcmp_parts_f+0xa6>
    28dc:	81 e0       	ldi	r24, 0x01	; 1
    28de:	90 e0       	ldi	r25, 0x00	; 0
    28e0:	02 c0       	rjmp	.+4      	; 0x28e6 <__fpcmp_parts_f+0xa6>
    28e2:	80 e0       	ldi	r24, 0x00	; 0
    28e4:	90 e0       	ldi	r25, 0x00	; 0
    28e6:	df 91       	pop	r29
    28e8:	cf 91       	pop	r28
    28ea:	08 95       	ret

000028ec <__prologue_saves__>:
    28ec:	2f 92       	push	r2
    28ee:	3f 92       	push	r3
    28f0:	4f 92       	push	r4
    28f2:	5f 92       	push	r5
    28f4:	6f 92       	push	r6
    28f6:	7f 92       	push	r7
    28f8:	8f 92       	push	r8
    28fa:	9f 92       	push	r9
    28fc:	af 92       	push	r10
    28fe:	bf 92       	push	r11
    2900:	cf 92       	push	r12
    2902:	df 92       	push	r13
    2904:	ef 92       	push	r14
    2906:	ff 92       	push	r15
    2908:	0f 93       	push	r16
    290a:	1f 93       	push	r17
    290c:	cf 93       	push	r28
    290e:	df 93       	push	r29
    2910:	cd b7       	in	r28, 0x3d	; 61
    2912:	de b7       	in	r29, 0x3e	; 62
    2914:	ca 1b       	sub	r28, r26
    2916:	db 0b       	sbc	r29, r27
    2918:	0f b6       	in	r0, 0x3f	; 63
    291a:	f8 94       	cli
    291c:	de bf       	out	0x3e, r29	; 62
    291e:	0f be       	out	0x3f, r0	; 63
    2920:	cd bf       	out	0x3d, r28	; 61
    2922:	19 94       	eijmp

00002924 <__epilogue_restores__>:
    2924:	2a 88       	ldd	r2, Y+18	; 0x12
    2926:	39 88       	ldd	r3, Y+17	; 0x11
    2928:	48 88       	ldd	r4, Y+16	; 0x10
    292a:	5f 84       	ldd	r5, Y+15	; 0x0f
    292c:	6e 84       	ldd	r6, Y+14	; 0x0e
    292e:	7d 84       	ldd	r7, Y+13	; 0x0d
    2930:	8c 84       	ldd	r8, Y+12	; 0x0c
    2932:	9b 84       	ldd	r9, Y+11	; 0x0b
    2934:	aa 84       	ldd	r10, Y+10	; 0x0a
    2936:	b9 84       	ldd	r11, Y+9	; 0x09
    2938:	c8 84       	ldd	r12, Y+8	; 0x08
    293a:	df 80       	ldd	r13, Y+7	; 0x07
    293c:	ee 80       	ldd	r14, Y+6	; 0x06
    293e:	fd 80       	ldd	r15, Y+5	; 0x05
    2940:	0c 81       	ldd	r16, Y+4	; 0x04
    2942:	1b 81       	ldd	r17, Y+3	; 0x03
    2944:	aa 81       	ldd	r26, Y+2	; 0x02
    2946:	b9 81       	ldd	r27, Y+1	; 0x01
    2948:	ce 0f       	add	r28, r30
    294a:	d1 1d       	adc	r29, r1
    294c:	0f b6       	in	r0, 0x3f	; 63
    294e:	f8 94       	cli
    2950:	de bf       	out	0x3e, r29	; 62
    2952:	0f be       	out	0x3f, r0	; 63
    2954:	cd bf       	out	0x3d, r28	; 61
    2956:	ed 01       	movw	r28, r26
    2958:	08 95       	ret

0000295a <_exit>:
    295a:	ff cf       	rjmp	.-2      	; 0x295a <_exit>
